
IAP_Audio.elf:     file format elf32-littlearm

Sections:
Idx Name          Size      VMA       LMA       File off  Algn
  0 .isr_vector   000000b8  08000000  08000000  00001000  2**0
                  CONTENTS, ALLOC, LOAD, READONLY, DATA
  1 .text         00001150  080000b8  080000b8  000010b8  2**3
                  CONTENTS, ALLOC, LOAD, READONLY, CODE
  2 .rodata       00000000  08001208  08001208  00003044  2**0
                  CONTENTS, ALLOC, LOAD, DATA
  3 .ARM.extab    00000000  08001208  08001208  00003044  2**0
                  CONTENTS
  4 .ARM          00000000  08001208  08001208  00003044  2**0
                  CONTENTS
  5 .preinit_array 00000000  08001208  08001208  00003044  2**0
                  CONTENTS, ALLOC, LOAD, DATA
  6 .init_array   00000004  08001208  08001208  00002208  2**2
                  CONTENTS, ALLOC, LOAD, READONLY, DATA
  7 .fini_array   00000004  0800120c  0800120c  0000220c  2**2
                  CONTENTS, ALLOC, LOAD, READONLY, DATA
  8 .data         00000044  20000000  08001210  00003000  2**2
                  CONTENTS, ALLOC, LOAD, CODE
  9 .bss          00000878  20000044  08001254  00003044  2**2
                  ALLOC
 10 ._user_heap_stack 00000604  200008bc  08001254  000038bc  2**0
                  ALLOC
 11 .ARM.attributes 00000028  00000000  00000000  00003044  2**0
                  CONTENTS, READONLY
 12 .comment      00000043  00000000  00000000  0000306c  2**0
                  CONTENTS, READONLY
 13 .debug_frame  0000006c  00000000  00000000  000030b0  2**2
                  CONTENTS, READONLY, DEBUGGING, OCTETS

Disassembly of section .text:

080000b8 <__do_global_dtors_aux>:
 80000b8:	b510      	push	{r4, lr}
 80000ba:	4c06      	ldr	r4, [pc, #24]	@ (80000d4 <__do_global_dtors_aux+0x1c>)
 80000bc:	7823      	ldrb	r3, [r4, #0]
 80000be:	2b00      	cmp	r3, #0
 80000c0:	d107      	bne.n	80000d2 <__do_global_dtors_aux+0x1a>
 80000c2:	4b05      	ldr	r3, [pc, #20]	@ (80000d8 <__do_global_dtors_aux+0x20>)
 80000c4:	2b00      	cmp	r3, #0
 80000c6:	d002      	beq.n	80000ce <__do_global_dtors_aux+0x16>
 80000c8:	4804      	ldr	r0, [pc, #16]	@ (80000dc <__do_global_dtors_aux+0x24>)
 80000ca:	e000      	b.n	80000ce <__do_global_dtors_aux+0x16>
 80000cc:	bf00      	nop
 80000ce:	2301      	movs	r3, #1
 80000d0:	7023      	strb	r3, [r4, #0]
 80000d2:	bd10      	pop	{r4, pc}
 80000d4:	20000044 	.word	0x20000044
 80000d8:	00000000 	.word	0x00000000
 80000dc:	080011e0 	.word	0x080011e0

080000e0 <frame_dummy>:
 80000e0:	4b04      	ldr	r3, [pc, #16]	@ (80000f4 <frame_dummy+0x14>)
 80000e2:	b510      	push	{r4, lr}
 80000e4:	2b00      	cmp	r3, #0
 80000e6:	d003      	beq.n	80000f0 <frame_dummy+0x10>
 80000e8:	4903      	ldr	r1, [pc, #12]	@ (80000f8 <frame_dummy+0x18>)
 80000ea:	4804      	ldr	r0, [pc, #16]	@ (80000fc <frame_dummy+0x1c>)
 80000ec:	e000      	b.n	80000f0 <frame_dummy+0x10>
 80000ee:	bf00      	nop
 80000f0:	bd10      	pop	{r4, pc}
 80000f2:	46c0      	nop			@ (mov r8, r8)
 80000f4:	00000000 	.word	0x00000000
 80000f8:	20000048 	.word	0x20000048
 80000fc:	080011e0 	.word	0x080011e0

08000100 <__udivsi3>:
 8000100:	2200      	movs	r2, #0
 8000102:	0843      	lsrs	r3, r0, #1
 8000104:	428b      	cmp	r3, r1
 8000106:	d374      	bcc.n	80001f2 <__udivsi3+0xf2>
 8000108:	0903      	lsrs	r3, r0, #4
 800010a:	428b      	cmp	r3, r1
 800010c:	d35f      	bcc.n	80001ce <__udivsi3+0xce>
 800010e:	0a03      	lsrs	r3, r0, #8
 8000110:	428b      	cmp	r3, r1
 8000112:	d344      	bcc.n	800019e <__udivsi3+0x9e>
 8000114:	0b03      	lsrs	r3, r0, #12
 8000116:	428b      	cmp	r3, r1
 8000118:	d328      	bcc.n	800016c <__udivsi3+0x6c>
 800011a:	0c03      	lsrs	r3, r0, #16
 800011c:	428b      	cmp	r3, r1
 800011e:	d30d      	bcc.n	800013c <__udivsi3+0x3c>
 8000120:	22ff      	movs	r2, #255	@ 0xff
 8000122:	0209      	lsls	r1, r1, #8
 8000124:	ba12      	rev	r2, r2
 8000126:	0c03      	lsrs	r3, r0, #16
 8000128:	428b      	cmp	r3, r1
 800012a:	d302      	bcc.n	8000132 <__udivsi3+0x32>
 800012c:	1212      	asrs	r2, r2, #8
 800012e:	0209      	lsls	r1, r1, #8
 8000130:	d065      	beq.n	80001fe <__udivsi3+0xfe>
 8000132:	0b03      	lsrs	r3, r0, #12
 8000134:	428b      	cmp	r3, r1
 8000136:	d319      	bcc.n	800016c <__udivsi3+0x6c>
 8000138:	e000      	b.n	800013c <__udivsi3+0x3c>
 800013a:	0a09      	lsrs	r1, r1, #8
 800013c:	0bc3      	lsrs	r3, r0, #15
 800013e:	428b      	cmp	r3, r1
 8000140:	d301      	bcc.n	8000146 <__udivsi3+0x46>
 8000142:	03cb      	lsls	r3, r1, #15
 8000144:	1ac0      	subs	r0, r0, r3
 8000146:	4152      	adcs	r2, r2
 8000148:	0b83      	lsrs	r3, r0, #14
 800014a:	428b      	cmp	r3, r1
 800014c:	d301      	bcc.n	8000152 <__udivsi3+0x52>
 800014e:	038b      	lsls	r3, r1, #14
 8000150:	1ac0      	subs	r0, r0, r3
 8000152:	4152      	adcs	r2, r2
 8000154:	0b43      	lsrs	r3, r0, #13
 8000156:	428b      	cmp	r3, r1
 8000158:	d301      	bcc.n	800015e <__udivsi3+0x5e>
 800015a:	034b      	lsls	r3, r1, #13
 800015c:	1ac0      	subs	r0, r0, r3
 800015e:	4152      	adcs	r2, r2
 8000160:	0b03      	lsrs	r3, r0, #12
 8000162:	428b      	cmp	r3, r1
 8000164:	d301      	bcc.n	800016a <__udivsi3+0x6a>
 8000166:	030b      	lsls	r3, r1, #12
 8000168:	1ac0      	subs	r0, r0, r3
 800016a:	4152      	adcs	r2, r2
 800016c:	0ac3      	lsrs	r3, r0, #11
 800016e:	428b      	cmp	r3, r1
 8000170:	d301      	bcc.n	8000176 <__udivsi3+0x76>
 8000172:	02cb      	lsls	r3, r1, #11
 8000174:	1ac0      	subs	r0, r0, r3
 8000176:	4152      	adcs	r2, r2
 8000178:	0a83      	lsrs	r3, r0, #10
 800017a:	428b      	cmp	r3, r1
 800017c:	d301      	bcc.n	8000182 <__udivsi3+0x82>
 800017e:	028b      	lsls	r3, r1, #10
 8000180:	1ac0      	subs	r0, r0, r3
 8000182:	4152      	adcs	r2, r2
 8000184:	0a43      	lsrs	r3, r0, #9
 8000186:	428b      	cmp	r3, r1
 8000188:	d301      	bcc.n	800018e <__udivsi3+0x8e>
 800018a:	024b      	lsls	r3, r1, #9
 800018c:	1ac0      	subs	r0, r0, r3
 800018e:	4152      	adcs	r2, r2
 8000190:	0a03      	lsrs	r3, r0, #8
 8000192:	428b      	cmp	r3, r1
 8000194:	d301      	bcc.n	800019a <__udivsi3+0x9a>
 8000196:	020b      	lsls	r3, r1, #8
 8000198:	1ac0      	subs	r0, r0, r3
 800019a:	4152      	adcs	r2, r2
 800019c:	d2cd      	bcs.n	800013a <__udivsi3+0x3a>
 800019e:	09c3      	lsrs	r3, r0, #7
 80001a0:	428b      	cmp	r3, r1
 80001a2:	d301      	bcc.n	80001a8 <__udivsi3+0xa8>
 80001a4:	01cb      	lsls	r3, r1, #7
 80001a6:	1ac0      	subs	r0, r0, r3
 80001a8:	4152      	adcs	r2, r2
 80001aa:	0983      	lsrs	r3, r0, #6
 80001ac:	428b      	cmp	r3, r1
 80001ae:	d301      	bcc.n	80001b4 <__udivsi3+0xb4>
 80001b0:	018b      	lsls	r3, r1, #6
 80001b2:	1ac0      	subs	r0, r0, r3
 80001b4:	4152      	adcs	r2, r2
 80001b6:	0943      	lsrs	r3, r0, #5
 80001b8:	428b      	cmp	r3, r1
 80001ba:	d301      	bcc.n	80001c0 <__udivsi3+0xc0>
 80001bc:	014b      	lsls	r3, r1, #5
 80001be:	1ac0      	subs	r0, r0, r3
 80001c0:	4152      	adcs	r2, r2
 80001c2:	0903      	lsrs	r3, r0, #4
 80001c4:	428b      	cmp	r3, r1
 80001c6:	d301      	bcc.n	80001cc <__udivsi3+0xcc>
 80001c8:	010b      	lsls	r3, r1, #4
 80001ca:	1ac0      	subs	r0, r0, r3
 80001cc:	4152      	adcs	r2, r2
 80001ce:	08c3      	lsrs	r3, r0, #3
 80001d0:	428b      	cmp	r3, r1
 80001d2:	d301      	bcc.n	80001d8 <__udivsi3+0xd8>
 80001d4:	00cb      	lsls	r3, r1, #3
 80001d6:	1ac0      	subs	r0, r0, r3
 80001d8:	4152      	adcs	r2, r2
 80001da:	0883      	lsrs	r3, r0, #2
 80001dc:	428b      	cmp	r3, r1
 80001de:	d301      	bcc.n	80001e4 <__udivsi3+0xe4>
 80001e0:	008b      	lsls	r3, r1, #2
 80001e2:	1ac0      	subs	r0, r0, r3
 80001e4:	4152      	adcs	r2, r2
 80001e6:	0843      	lsrs	r3, r0, #1
 80001e8:	428b      	cmp	r3, r1
 80001ea:	d301      	bcc.n	80001f0 <__udivsi3+0xf0>
 80001ec:	004b      	lsls	r3, r1, #1
 80001ee:	1ac0      	subs	r0, r0, r3
 80001f0:	4152      	adcs	r2, r2
 80001f2:	1a41      	subs	r1, r0, r1
 80001f4:	d200      	bcs.n	80001f8 <__udivsi3+0xf8>
 80001f6:	4601      	mov	r1, r0
 80001f8:	4152      	adcs	r2, r2
 80001fa:	4610      	mov	r0, r2
 80001fc:	4770      	bx	lr
 80001fe:	e7ff      	b.n	8000200 <__udivsi3+0x100>
 8000200:	b501      	push	{r0, lr}
 8000202:	2000      	movs	r0, #0
 8000204:	f000 f806 	bl	8000214 <__aeabi_idiv0>
 8000208:	bd02      	pop	{r1, pc}
 800020a:	46c0      	nop			@ (mov r8, r8)

0800020c <__aeabi_uidivmod>:
 800020c:	2900      	cmp	r1, #0
 800020e:	d0f7      	beq.n	8000200 <__udivsi3+0x100>
 8000210:	e776      	b.n	8000100 <__udivsi3>
 8000212:	4770      	bx	lr

08000214 <__aeabi_idiv0>:
 8000214:	4770      	bx	lr
 8000216:	46c0      	nop			@ (mov r8, r8)

08000218 <MX_CRC_Init>:
 8000218:	480b      	ldr	r0, [pc, #44]	@ (8000248 <MX_CRC_Init+0x30>)
 800021a:	4b0c      	ldr	r3, [pc, #48]	@ (800024c <MX_CRC_Init+0x34>)
 800021c:	b510      	push	{r4, lr}
 800021e:	6003      	str	r3, [r0, #0]
 8000220:	2380      	movs	r3, #128	@ 0x80
 8000222:	005b      	lsls	r3, r3, #1
 8000224:	8083      	strh	r3, [r0, #4]
 8000226:	3b02      	subs	r3, #2
 8000228:	3bff      	subs	r3, #255	@ 0xff
 800022a:	6103      	str	r3, [r0, #16]
 800022c:	3321      	adds	r3, #33	@ 0x21
 800022e:	6143      	str	r3, [r0, #20]
 8000230:	3360      	adds	r3, #96	@ 0x60
 8000232:	6183      	str	r3, [r0, #24]
 8000234:	3b7f      	subs	r3, #127	@ 0x7f
 8000236:	6203      	str	r3, [r0, #32]
 8000238:	f000 fc5e 	bl	8000af8 <HAL_CRC_Init>
 800023c:	2800      	cmp	r0, #0
 800023e:	d001      	beq.n	8000244 <MX_CRC_Init+0x2c>
 8000240:	f000 fb22 	bl	8000888 <Error_Handler>
 8000244:	bd10      	pop	{r4, pc}
 8000246:	46c0      	nop			@ (mov r8, r8)
 8000248:	20000060 	.word	0x20000060
 800024c:	40023000 	.word	0x40023000

08000250 <HAL_CRC_MspInit>:
 8000250:	4b08      	ldr	r3, [pc, #32]	@ (8000274 <HAL_CRC_MspInit+0x24>)
 8000252:	6802      	ldr	r2, [r0, #0]
 8000254:	b082      	sub	sp, #8
 8000256:	429a      	cmp	r2, r3
 8000258:	d109      	bne.n	800026e <HAL_CRC_MspInit+0x1e>
 800025a:	2180      	movs	r1, #128	@ 0x80
 800025c:	4b06      	ldr	r3, [pc, #24]	@ (8000278 <HAL_CRC_MspInit+0x28>)
 800025e:	0149      	lsls	r1, r1, #5
 8000260:	6b9a      	ldr	r2, [r3, #56]	@ 0x38
 8000262:	430a      	orrs	r2, r1
 8000264:	639a      	str	r2, [r3, #56]	@ 0x38
 8000266:	6b9b      	ldr	r3, [r3, #56]	@ 0x38
 8000268:	400b      	ands	r3, r1
 800026a:	9301      	str	r3, [sp, #4]
 800026c:	9b01      	ldr	r3, [sp, #4]
 800026e:	b002      	add	sp, #8
 8000270:	4770      	bx	lr
 8000272:	46c0      	nop			@ (mov r8, r8)
 8000274:	40023000 	.word	0x40023000
 8000278:	40021000 	.word	0x40021000

0800027c <HAL_CRC_MspDeInit>:
 800027c:	4b04      	ldr	r3, [pc, #16]	@ (8000290 <HAL_CRC_MspDeInit+0x14>)
 800027e:	6802      	ldr	r2, [r0, #0]
 8000280:	429a      	cmp	r2, r3
 8000282:	d104      	bne.n	800028e <HAL_CRC_MspDeInit+0x12>
 8000284:	4a03      	ldr	r2, [pc, #12]	@ (8000294 <HAL_CRC_MspDeInit+0x18>)
 8000286:	4904      	ldr	r1, [pc, #16]	@ (8000298 <HAL_CRC_MspDeInit+0x1c>)
 8000288:	6b93      	ldr	r3, [r2, #56]	@ 0x38
 800028a:	400b      	ands	r3, r1
 800028c:	6393      	str	r3, [r2, #56]	@ 0x38
 800028e:	4770      	bx	lr
 8000290:	40023000 	.word	0x40023000
 8000294:	40021000 	.word	0x40021000
 8000298:	ffffefff 	.word	0xffffefff

0800029c <MX_GPIO_Init>:
 800029c:	2101      	movs	r1, #1
 800029e:	4b05      	ldr	r3, [pc, #20]	@ (80002b4 <MX_GPIO_Init+0x18>)
 80002a0:	b082      	sub	sp, #8
 80002a2:	6b5a      	ldr	r2, [r3, #52]	@ 0x34
 80002a4:	430a      	orrs	r2, r1
 80002a6:	635a      	str	r2, [r3, #52]	@ 0x34
 80002a8:	6b5b      	ldr	r3, [r3, #52]	@ 0x34
 80002aa:	400b      	ands	r3, r1
 80002ac:	9301      	str	r3, [sp, #4]
 80002ae:	9b01      	ldr	r3, [sp, #4]
 80002b0:	b002      	add	sp, #8
 80002b2:	4770      	bx	lr
 80002b4:	40021000 	.word	0x40021000

080002b8 <MX_I2C2_Init>:
 80002b8:	b5f0      	push	{r4, r5, r6, r7, lr}
 80002ba:	2601      	movs	r6, #1
 80002bc:	b091      	sub	sp, #68	@ 0x44
 80002be:	4d31      	ldr	r5, [pc, #196]	@ (8000384 <MX_I2C2_Init+0xcc>)
 80002c0:	221c      	movs	r2, #28
 80002c2:	2100      	movs	r1, #0
 80002c4:	a809      	add	r0, sp, #36	@ 0x24
 80002c6:	f000 ff5f 	bl	8001188 <memset>
 80002ca:	6b6b      	ldr	r3, [r5, #52]	@ 0x34
 80002cc:	20a0      	movs	r0, #160	@ 0xa0
 80002ce:	4333      	orrs	r3, r6
 80002d0:	636b      	str	r3, [r5, #52]	@ 0x34
 80002d2:	6b6b      	ldr	r3, [r5, #52]	@ 0x34
 80002d4:	2400      	movs	r4, #0
 80002d6:	4033      	ands	r3, r6
 80002d8:	9302      	str	r3, [sp, #8]
 80002da:	9b02      	ldr	r3, [sp, #8]
 80002dc:	2380      	movs	r3, #128	@ 0x80
 80002de:	011b      	lsls	r3, r3, #4
 80002e0:	2706      	movs	r7, #6
 80002e2:	9303      	str	r3, [sp, #12]
 80002e4:	2302      	movs	r3, #2
 80002e6:	a903      	add	r1, sp, #12
 80002e8:	05c0      	lsls	r0, r0, #23
 80002ea:	9304      	str	r3, [sp, #16]
 80002ec:	9405      	str	r4, [sp, #20]
 80002ee:	9606      	str	r6, [sp, #24]
 80002f0:	9407      	str	r4, [sp, #28]
 80002f2:	9708      	str	r7, [sp, #32]
 80002f4:	f000 fe4a 	bl	8000f8c <LL_GPIO_Init>
 80002f8:	2380      	movs	r3, #128	@ 0x80
 80002fa:	20a0      	movs	r0, #160	@ 0xa0
 80002fc:	015b      	lsls	r3, r3, #5
 80002fe:	9303      	str	r3, [sp, #12]
 8000300:	2302      	movs	r3, #2
 8000302:	a903      	add	r1, sp, #12
 8000304:	05c0      	lsls	r0, r0, #23
 8000306:	9304      	str	r3, [sp, #16]
 8000308:	9405      	str	r4, [sp, #20]
 800030a:	9606      	str	r6, [sp, #24]
 800030c:	9407      	str	r4, [sp, #28]
 800030e:	9708      	str	r7, [sp, #32]
 8000310:	f000 fe3c 	bl	8000f8c <LL_GPIO_Init>
 8000314:	2280      	movs	r2, #128	@ 0x80
 8000316:	21c6      	movs	r1, #198	@ 0xc6
 8000318:	20ff      	movs	r0, #255	@ 0xff
 800031a:	6beb      	ldr	r3, [r5, #60]	@ 0x3c
 800031c:	03d2      	lsls	r2, r2, #15
 800031e:	4313      	orrs	r3, r2
 8000320:	63eb      	str	r3, [r5, #60]	@ 0x3c
 8000322:	6beb      	ldr	r3, [r5, #60]	@ 0x3c
 8000324:	0089      	lsls	r1, r1, #2
 8000326:	4013      	ands	r3, r2
 8000328:	9301      	str	r3, [sp, #4]
 800032a:	9b01      	ldr	r3, [sp, #4]
 800032c:	4b16      	ldr	r3, [pc, #88]	@ (8000388 <MX_I2C2_Init+0xd0>)
 800032e:	585a      	ldr	r2, [r3, r1]
 8000330:	4382      	bics	r2, r0
 8000332:	505a      	str	r2, [r3, r1]
 8000334:	2280      	movs	r2, #128	@ 0x80
 8000336:	0452      	lsls	r2, r2, #17
 8000338:	601a      	str	r2, [r3, #0]
 800033a:	4b14      	ldr	r3, [pc, #80]	@ (800038c <MX_I2C2_Init+0xd4>)
 800033c:	9409      	str	r4, [sp, #36]	@ 0x24
 800033e:	930a      	str	r3, [sp, #40]	@ 0x28
 8000340:	23a8      	movs	r3, #168	@ 0xa8
 8000342:	940b      	str	r4, [sp, #44]	@ 0x2c
 8000344:	940c      	str	r4, [sp, #48]	@ 0x30
 8000346:	940e      	str	r4, [sp, #56]	@ 0x38
 8000348:	940f      	str	r4, [sp, #60]	@ 0x3c
 800034a:	4c11      	ldr	r4, [pc, #68]	@ (8000390 <MX_I2C2_Init+0xd8>)
 800034c:	a909      	add	r1, sp, #36	@ 0x24
 800034e:	0020      	movs	r0, r4
 8000350:	930d      	str	r3, [sp, #52]	@ 0x34
 8000352:	f000 fe93 	bl	800107c <LL_I2C_Init>
 8000356:	2380      	movs	r3, #128	@ 0x80
 8000358:	6862      	ldr	r2, [r4, #4]
 800035a:	049b      	lsls	r3, r3, #18
 800035c:	4313      	orrs	r3, r2
 800035e:	6063      	str	r3, [r4, #4]
 8000360:	68e3      	ldr	r3, [r4, #12]
 8000362:	4a0c      	ldr	r2, [pc, #48]	@ (8000394 <MX_I2C2_Init+0xdc>)
 8000364:	4013      	ands	r3, r2
 8000366:	60e3      	str	r3, [r4, #12]
 8000368:	68e3      	ldr	r3, [r4, #12]
 800036a:	4a0b      	ldr	r2, [pc, #44]	@ (8000398 <MX_I2C2_Init+0xe0>)
 800036c:	4013      	ands	r3, r2
 800036e:	60e3      	str	r3, [r4, #12]
 8000370:	6823      	ldr	r3, [r4, #0]
 8000372:	4a0a      	ldr	r2, [pc, #40]	@ (800039c <MX_I2C2_Init+0xe4>)
 8000374:	4013      	ands	r3, r2
 8000376:	6023      	str	r3, [r4, #0]
 8000378:	6823      	ldr	r3, [r4, #0]
 800037a:	4a09      	ldr	r2, [pc, #36]	@ (80003a0 <MX_I2C2_Init+0xe8>)
 800037c:	4013      	ands	r3, r2
 800037e:	6023      	str	r3, [r4, #0]
 8000380:	b011      	add	sp, #68	@ 0x44
 8000382:	bdf0      	pop	{r4, r5, r6, r7, pc}
 8000384:	40021000 	.word	0x40021000
 8000388:	e000e100 	.word	0xe000e100
 800038c:	00c12166 	.word	0x00c12166
 8000390:	40005800 	.word	0x40005800
 8000394:	fffff801 	.word	0xfffff801
 8000398:	ffff7fff 	.word	0xffff7fff
 800039c:	fff7ffff 	.word	0xfff7ffff
 80003a0:	fffdffff 	.word	0xfffdffff

080003a4 <compute_fw_crc32>:
 80003a4:	4b06      	ldr	r3, [pc, #24]	@ (80003c0 <compute_fw_crc32+0x1c>)
 80003a6:	b510      	push	{r4, lr}
 80003a8:	4a06      	ldr	r2, [pc, #24]	@ (80003c4 <compute_fw_crc32+0x20>)
 80003aa:	4907      	ldr	r1, [pc, #28]	@ (80003c8 <compute_fw_crc32+0x24>)
 80003ac:	4807      	ldr	r0, [pc, #28]	@ (80003cc <compute_fw_crc32+0x28>)
 80003ae:	681c      	ldr	r4, [r3, #0]
 80003b0:	f000 fbf5 	bl	8000b9e <HAL_CRC_Calculate>
 80003b4:	43c0      	mvns	r0, r0
 80003b6:	1b00      	subs	r0, r0, r4
 80003b8:	4243      	negs	r3, r0
 80003ba:	4158      	adcs	r0, r3
 80003bc:	b2c0      	uxtb	r0, r0
 80003be:	bd10      	pop	{r4, pc}
 80003c0:	080077fc 	.word	0x080077fc
 80003c4:	00005ffc 	.word	0x00005ffc
 80003c8:	08001800 	.word	0x08001800
 80003cc:	20000060 	.word	0x20000060

080003d0 <I2C2_IRQHandler>:
 80003d0:	2208      	movs	r2, #8
 80003d2:	4b2e      	ldr	r3, [pc, #184]	@ (800048c <I2C2_IRQHandler+0xbc>)
 80003d4:	b570      	push	{r4, r5, r6, lr}
 80003d6:	6999      	ldr	r1, [r3, #24]
 80003d8:	4211      	tst	r1, r2
 80003da:	d035      	beq.n	8000448 <I2C2_IRQHandler+0x78>
 80003dc:	69d8      	ldr	r0, [r3, #28]
 80003de:	4302      	orrs	r2, r0
 80003e0:	61da      	str	r2, [r3, #28]
 80003e2:	699a      	ldr	r2, [r3, #24]
 80003e4:	482a      	ldr	r0, [pc, #168]	@ (8000490 <I2C2_IRQHandler+0xc0>)
 80003e6:	03d2      	lsls	r2, r2, #15
 80003e8:	d528      	bpl.n	800043c <I2C2_IRQHandler+0x6c>
 80003ea:	2202      	movs	r2, #2
 80003ec:	681c      	ldr	r4, [r3, #0]
 80003ee:	4322      	orrs	r2, r4
 80003f0:	601a      	str	r2, [r3, #0]
 80003f2:	2203      	movs	r2, #3
 80003f4:	7002      	strb	r2, [r0, #0]
 80003f6:	2220      	movs	r2, #32
 80003f8:	6818      	ldr	r0, [r3, #0]
 80003fa:	4302      	orrs	r2, r0
 80003fc:	601a      	str	r2, [r3, #0]
 80003fe:	2020      	movs	r0, #32
 8000400:	4201      	tst	r1, r0
 8000402:	d03f      	beq.n	8000484 <I2C2_IRQHandler+0xb4>
 8000404:	69da      	ldr	r2, [r3, #28]
 8000406:	4302      	orrs	r2, r0
 8000408:	61da      	str	r2, [r3, #28]
 800040a:	4a21      	ldr	r2, [pc, #132]	@ (8000490 <I2C2_IRQHandler+0xc0>)
 800040c:	7811      	ldrb	r1, [r2, #0]
 800040e:	b2cc      	uxtb	r4, r1
 8000410:	2903      	cmp	r1, #3
 8000412:	d02b      	beq.n	800046c <I2C2_IRQHandler+0x9c>
 8000414:	2c04      	cmp	r4, #4
 8000416:	d110      	bne.n	800043a <I2C2_IRQHandler+0x6a>
 8000418:	2400      	movs	r4, #0
 800041a:	491e      	ldr	r1, [pc, #120]	@ (8000494 <I2C2_IRQHandler+0xc4>)
 800041c:	800c      	strh	r4, [r1, #0]
 800041e:	2101      	movs	r1, #1
 8000420:	7011      	strb	r1, [r2, #0]
 8000422:	681a      	ldr	r2, [r3, #0]
 8000424:	4382      	bics	r2, r0
 8000426:	601a      	str	r2, [r3, #0]
 8000428:	2280      	movs	r2, #128	@ 0x80
 800042a:	6859      	ldr	r1, [r3, #4]
 800042c:	0212      	lsls	r2, r2, #8
 800042e:	430a      	orrs	r2, r1
 8000430:	605a      	str	r2, [r3, #4]
 8000432:	2208      	movs	r2, #8
 8000434:	6819      	ldr	r1, [r3, #0]
 8000436:	430a      	orrs	r2, r1
 8000438:	601a      	str	r2, [r3, #0]
 800043a:	bd70      	pop	{r4, r5, r6, pc}
 800043c:	2404      	movs	r4, #4
 800043e:	681a      	ldr	r2, [r3, #0]
 8000440:	4322      	orrs	r2, r4
 8000442:	601a      	str	r2, [r3, #0]
 8000444:	7004      	strb	r4, [r0, #0]
 8000446:	e7d6      	b.n	80003f6 <I2C2_IRQHandler+0x26>
 8000448:	078a      	lsls	r2, r1, #30
 800044a:	d4d8      	bmi.n	80003fe <I2C2_IRQHandler+0x2e>
 800044c:	2404      	movs	r4, #4
 800044e:	4221      	tst	r1, r4
 8000450:	d0d5      	beq.n	80003fe <I2C2_IRQHandler+0x2e>
 8000452:	4e10      	ldr	r6, [pc, #64]	@ (8000494 <I2C2_IRQHandler+0xc4>)
 8000454:	6a58      	ldr	r0, [r3, #36]	@ 0x24
 8000456:	8832      	ldrh	r2, [r6, #0]
 8000458:	b295      	uxth	r5, r2
 800045a:	3201      	adds	r2, #1
 800045c:	b292      	uxth	r2, r2
 800045e:	8032      	strh	r2, [r6, #0]
 8000460:	b2c2      	uxtb	r2, r0
 8000462:	480d      	ldr	r0, [pc, #52]	@ (8000498 <I2C2_IRQHandler+0xc8>)
 8000464:	5542      	strb	r2, [r0, r5]
 8000466:	4a0a      	ldr	r2, [pc, #40]	@ (8000490 <I2C2_IRQHandler+0xc0>)
 8000468:	7014      	strb	r4, [r2, #0]
 800046a:	e7c8      	b.n	80003fe <I2C2_IRQHandler+0x2e>
 800046c:	2198      	movs	r1, #152	@ 0x98
 800046e:	69d8      	ldr	r0, [r3, #28]
 8000470:	0049      	lsls	r1, r1, #1
 8000472:	4301      	orrs	r1, r0
 8000474:	61d9      	str	r1, [r3, #28]
 8000476:	2108      	movs	r1, #8
 8000478:	6818      	ldr	r0, [r3, #0]
 800047a:	4301      	orrs	r1, r0
 800047c:	6019      	str	r1, [r3, #0]
 800047e:	2300      	movs	r3, #0
 8000480:	7013      	strb	r3, [r2, #0]
 8000482:	e7da      	b.n	800043a <I2C2_IRQHandler+0x6a>
 8000484:	2201      	movs	r2, #1
 8000486:	4b05      	ldr	r3, [pc, #20]	@ (800049c <I2C2_IRQHandler+0xcc>)
 8000488:	801a      	strh	r2, [r3, #0]
 800048a:	e7d6      	b.n	800043a <I2C2_IRQHandler+0x6a>
 800048c:	40005800 	.word	0x40005800
 8000490:	2000008e 	.word	0x2000008e
 8000494:	20000898 	.word	0x20000898
 8000498:	2000008f 	.word	0x2000008f
 800049c:	2000008c 	.word	0x2000008c

080004a0 <reset_all_periph>:
 80004a0:	b570      	push	{r4, r5, r6, lr}
 80004a2:	4c1a      	ldr	r4, [pc, #104]	@ (800050c <reset_all_periph+0x6c>)
 80004a4:	4d1a      	ldr	r5, [pc, #104]	@ (8000510 <reset_all_periph+0x70>)
 80004a6:	0020      	movs	r0, r4
 80004a8:	f000 fdc0 	bl	800102c <LL_I2C_DeInit>
 80004ac:	6863      	ldr	r3, [r4, #4]
 80004ae:	4a19      	ldr	r2, [pc, #100]	@ (8000514 <reset_all_periph+0x74>)
 80004b0:	2103      	movs	r1, #3
 80004b2:	4013      	ands	r3, r2
 80004b4:	2201      	movs	r2, #1
 80004b6:	6063      	str	r3, [r4, #4]
 80004b8:	6823      	ldr	r3, [r4, #0]
 80004ba:	4393      	bics	r3, r2
 80004bc:	6023      	str	r3, [r4, #0]
 80004be:	6823      	ldr	r3, [r4, #0]
 80004c0:	3207      	adds	r2, #7
 80004c2:	4393      	bics	r3, r2
 80004c4:	6023      	str	r3, [r4, #0]
 80004c6:	2400      	movs	r4, #0
 80004c8:	4b13      	ldr	r3, [pc, #76]	@ (8000518 <reset_all_periph+0x78>)
 80004ca:	602c      	str	r4, [r5, #0]
 80004cc:	681a      	ldr	r2, [r3, #0]
 80004ce:	400a      	ands	r2, r1
 80004d0:	601a      	str	r2, [r3, #0]
 80004d2:	4a12      	ldr	r2, [pc, #72]	@ (800051c <reset_all_periph+0x7c>)
 80004d4:	3904      	subs	r1, #4
 80004d6:	1d10      	adds	r0, r2, #4
 80004d8:	67c1      	str	r1, [r0, #124]	@ 0x7c
 80004da:	20c0      	movs	r0, #192	@ 0xc0
 80004dc:	0040      	lsls	r0, r0, #1
 80004de:	5011      	str	r1, [r2, r0]
 80004e0:	4a0f      	ldr	r2, [pc, #60]	@ (8000520 <reset_all_periph+0x80>)
 80004e2:	6614      	str	r4, [r2, #96]	@ 0x60
 80004e4:	6654      	str	r4, [r2, #100]	@ 0x64
 80004e6:	6694      	str	r4, [r2, #104]	@ 0x68
 80004e8:	66d4      	str	r4, [r2, #108]	@ 0x6c
 80004ea:	2280      	movs	r2, #128	@ 0x80
 80004ec:	6999      	ldr	r1, [r3, #24]
 80004ee:	0052      	lsls	r2, r2, #1
 80004f0:	430a      	orrs	r2, r1
 80004f2:	619a      	str	r2, [r3, #24]
 80004f4:	f000 fdfc 	bl	80010f0 <LL_RCC_DeInit>
 80004f8:	480a      	ldr	r0, [pc, #40]	@ (8000524 <reset_all_periph+0x84>)
 80004fa:	f000 fb37 	bl	8000b6c <HAL_CRC_DeInit>
 80004fe:	f000 fa11 	bl	8000924 <HAL_DeInit>
 8000502:	602c      	str	r4, [r5, #0]
 8000504:	606c      	str	r4, [r5, #4]
 8000506:	60ac      	str	r4, [r5, #8]
 8000508:	bd70      	pop	{r4, r5, r6, pc}
 800050a:	46c0      	nop			@ (mov r8, r8)
 800050c:	40005800 	.word	0x40005800
 8000510:	e000e010 	.word	0xe000e010
 8000514:	fdffffff 	.word	0xfdffffff
 8000518:	40010000 	.word	0x40010000
 800051c:	e000e100 	.word	0xe000e100
 8000520:	40021800 	.word	0x40021800
 8000524:	20000060 	.word	0x20000060

08000528 <jump_app>:
 8000528:	b510      	push	{r4, lr}
 800052a:	f7ff ff3b 	bl	80003a4 <compute_fw_crc32>
 800052e:	2800      	cmp	r0, #0
 8000530:	d017      	beq.n	8000562 <jump_app+0x3a>
 8000532:	4c0c      	ldr	r4, [pc, #48]	@ (8000564 <jump_app+0x3c>)
 8000534:	4a0c      	ldr	r2, [pc, #48]	@ (8000568 <jump_app+0x40>)
 8000536:	6823      	ldr	r3, [r4, #0]
 8000538:	4013      	ands	r3, r2
 800053a:	2280      	movs	r2, #128	@ 0x80
 800053c:	0592      	lsls	r2, r2, #22
 800053e:	4293      	cmp	r3, r2
 8000540:	d10f      	bne.n	8000562 <jump_app+0x3a>
 8000542:	f7ff ffad 	bl	80004a0 <reset_all_periph>
 8000546:	4b09      	ldr	r3, [pc, #36]	@ (800056c <jump_app+0x44>)
 8000548:	609c      	str	r4, [r3, #8]
 800054a:	4b09      	ldr	r3, [pc, #36]	@ (8000570 <jump_app+0x48>)
 800054c:	681a      	ldr	r2, [r3, #0]
 800054e:	4b09      	ldr	r3, [pc, #36]	@ (8000574 <jump_app+0x4c>)
 8000550:	601a      	str	r2, [r3, #0]
 8000552:	681a      	ldr	r2, [r3, #0]
 8000554:	4b08      	ldr	r3, [pc, #32]	@ (8000578 <jump_app+0x50>)
 8000556:	601a      	str	r2, [r3, #0]
 8000558:	6822      	ldr	r2, [r4, #0]
 800055a:	f382 8808 	msr	MSP, r2
 800055e:	681b      	ldr	r3, [r3, #0]
 8000560:	4798      	blx	r3
 8000562:	bd10      	pop	{r4, pc}
 8000564:	08001800 	.word	0x08001800
 8000568:	2ffe0000 	.word	0x2ffe0000
 800056c:	e000ed00 	.word	0xe000ed00
 8000570:	08001804 	.word	0x08001804
 8000574:	20000088 	.word	0x20000088
 8000578:	20000084 	.word	0x20000084

0800057c <write_code>:
 800057c:	2300      	movs	r3, #0
 800057e:	b5f0      	push	{r4, r5, r6, r7, lr}
 8000580:	b08b      	sub	sp, #44	@ 0x2c
 8000582:	9305      	str	r3, [sp, #20]
 8000584:	4b43      	ldr	r3, [pc, #268]	@ (8000694 <write_code+0x118>)
 8000586:	785c      	ldrb	r4, [r3, #1]
 8000588:	7898      	ldrb	r0, [r3, #2]
 800058a:	78da      	ldrb	r2, [r3, #3]
 800058c:	7919      	ldrb	r1, [r3, #4]
 800058e:	795d      	ldrb	r5, [r3, #5]
 8000590:	799b      	ldrb	r3, [r3, #6]
 8000592:	022d      	lsls	r5, r5, #8
 8000594:	195b      	adds	r3, r3, r5
 8000596:	b29b      	uxth	r3, r3
 8000598:	b2e4      	uxtb	r4, r4
 800059a:	b2c0      	uxtb	r0, r0
 800059c:	b2d2      	uxtb	r2, r2
 800059e:	b2c9      	uxtb	r1, r1
 80005a0:	2b00      	cmp	r3, #0
 80005a2:	d036      	beq.n	8000612 <write_code+0x96>
 80005a4:	0624      	lsls	r4, r4, #24
 80005a6:	0400      	lsls	r0, r0, #16
 80005a8:	4b3b      	ldr	r3, [pc, #236]	@ (8000698 <write_code+0x11c>)
 80005aa:	4304      	orrs	r4, r0
 80005ac:	0212      	lsls	r2, r2, #8
 80005ae:	430c      	orrs	r4, r1
 80005b0:	4314      	orrs	r4, r2
 80005b2:	691a      	ldr	r2, [r3, #16]
 80005b4:	0352      	lsls	r2, r2, #13
 80005b6:	d505      	bpl.n	80005c4 <write_code+0x48>
 80005b8:	2296      	movs	r2, #150	@ 0x96
 80005ba:	4938      	ldr	r1, [pc, #224]	@ (800069c <write_code+0x120>)
 80005bc:	0092      	lsls	r2, r2, #2
 80005be:	50a1      	str	r1, [r4, r2]
 80005c0:	4a37      	ldr	r2, [pc, #220]	@ (80006a0 <write_code+0x124>)
 80005c2:	611a      	str	r2, [r3, #16]
 80005c4:	f000 fb40 	bl	8000c48 <HAL_FLASH_Unlock>
 80005c8:	2800      	cmp	r0, #0
 80005ca:	d1fb      	bne.n	80005c4 <write_code+0x48>
 80005cc:	2302      	movs	r3, #2
 80005ce:	9306      	str	r3, [sp, #24]
 80005d0:	23f8      	movs	r3, #248	@ 0xf8
 80005d2:	061b      	lsls	r3, r3, #24
 80005d4:	18e3      	adds	r3, r4, r3
 80005d6:	0adb      	lsrs	r3, r3, #11
 80005d8:	9308      	str	r3, [sp, #32]
 80005da:	2301      	movs	r3, #1
 80005dc:	9309      	str	r3, [sp, #36]	@ 0x24
 80005de:	2032      	movs	r0, #50	@ 0x32
 80005e0:	f000 fb44 	bl	8000c6c <FLASH_WaitForLastOperation>
 80005e4:	a905      	add	r1, sp, #20
 80005e6:	a806      	add	r0, sp, #24
 80005e8:	f000 fbce 	bl	8000d88 <HAL_FLASHEx_Erase>
 80005ec:	2800      	cmp	r0, #0
 80005ee:	d1f6      	bne.n	80005de <write_code+0x62>
 80005f0:	4b2c      	ldr	r3, [pc, #176]	@ (80006a4 <write_code+0x128>)
 80005f2:	2701      	movs	r7, #1
 80005f4:	429c      	cmp	r4, r3
 80005f6:	d801      	bhi.n	80005fc <write_code+0x80>
 80005f8:	2702      	movs	r7, #2
 80005fa:	37ff      	adds	r7, #255	@ 0xff
 80005fc:	2300      	movs	r3, #0
 80005fe:	3f01      	subs	r7, #1
 8000600:	18e2      	adds	r2, r4, r3
 8000602:	9201      	str	r2, [sp, #4]
 8000604:	2f00      	cmp	r7, #0
 8000606:	d10e      	bne.n	8000626 <write_code+0xaa>
 8000608:	f000 fb9c 	bl	8000d44 <HAL_FLASH_Lock>
 800060c:	2032      	movs	r0, #50	@ 0x32
 800060e:	f000 fb2d 	bl	8000c6c <FLASH_WaitForLastOperation>
 8000612:	2300      	movs	r3, #0
 8000614:	0018      	movs	r0, r3
 8000616:	491f      	ldr	r1, [pc, #124]	@ (8000694 <write_code+0x118>)
 8000618:	4a23      	ldr	r2, [pc, #140]	@ (80006a8 <write_code+0x12c>)
 800061a:	54c8      	strb	r0, [r1, r3]
 800061c:	3301      	adds	r3, #1
 800061e:	4293      	cmp	r3, r2
 8000620:	d1fb      	bne.n	800061a <write_code+0x9e>
 8000622:	b00b      	add	sp, #44	@ 0x2c
 8000624:	bdf0      	pop	{r4, r5, r6, r7, pc}
 8000626:	001a      	movs	r2, r3
 8000628:	3208      	adds	r2, #8
 800062a:	9200      	str	r2, [sp, #0]
 800062c:	9900      	ldr	r1, [sp, #0]
 800062e:	4a19      	ldr	r2, [pc, #100]	@ (8000694 <write_code+0x118>)
 8000630:	5c51      	ldrb	r1, [r2, r1]
 8000632:	9102      	str	r1, [sp, #8]
 8000634:	0019      	movs	r1, r3
 8000636:	3109      	adds	r1, #9
 8000638:	5c55      	ldrb	r5, [r2, r1]
 800063a:	3101      	adds	r1, #1
 800063c:	5c50      	ldrb	r0, [r2, r1]
 800063e:	3101      	adds	r1, #1
 8000640:	5c51      	ldrb	r1, [r2, r1]
 8000642:	022d      	lsls	r5, r5, #8
 8000644:	9103      	str	r1, [sp, #12]
 8000646:	0019      	movs	r1, r3
 8000648:	310c      	adds	r1, #12
 800064a:	5c51      	ldrb	r1, [r2, r1]
 800064c:	0400      	lsls	r0, r0, #16
 800064e:	468c      	mov	ip, r1
 8000650:	0019      	movs	r1, r3
 8000652:	310d      	adds	r1, #13
 8000654:	5c56      	ldrb	r6, [r2, r1]
 8000656:	330f      	adds	r3, #15
 8000658:	3101      	adds	r1, #1
 800065a:	5c51      	ldrb	r1, [r2, r1]
 800065c:	5cd3      	ldrb	r3, [r2, r3]
 800065e:	9a02      	ldr	r2, [sp, #8]
 8000660:	4305      	orrs	r5, r0
 8000662:	4315      	orrs	r5, r2
 8000664:	9a03      	ldr	r2, [sp, #12]
 8000666:	0236      	lsls	r6, r6, #8
 8000668:	0612      	lsls	r2, r2, #24
 800066a:	4315      	orrs	r5, r2
 800066c:	4662      	mov	r2, ip
 800066e:	0409      	lsls	r1, r1, #16
 8000670:	4316      	orrs	r6, r2
 8000672:	430e      	orrs	r6, r1
 8000674:	061b      	lsls	r3, r3, #24
 8000676:	431e      	orrs	r6, r3
 8000678:	2032      	movs	r0, #50	@ 0x32
 800067a:	f000 faf7 	bl	8000c6c <FLASH_WaitForLastOperation>
 800067e:	002a      	movs	r2, r5
 8000680:	0033      	movs	r3, r6
 8000682:	2001      	movs	r0, #1
 8000684:	9901      	ldr	r1, [sp, #4]
 8000686:	f000 fb29 	bl	8000cdc <HAL_FLASH_Program>
 800068a:	2800      	cmp	r0, #0
 800068c:	d1f4      	bne.n	8000678 <write_code+0xfc>
 800068e:	9b00      	ldr	r3, [sp, #0]
 8000690:	3f01      	subs	r7, #1
 8000692:	e7b5      	b.n	8000600 <write_code+0x84>
 8000694:	2000008f 	.word	0x2000008f
 8000698:	40022000 	.word	0x40022000
 800069c:	00003023 	.word	0x00003023
 80006a0:	000083fb 	.word	0x000083fb
 80006a4:	fffff7ff 	.word	0xfffff7ff
 80006a8:	00000808 	.word	0x00000808

080006ac <iap_i2c>:
 80006ac:	b570      	push	{r4, r5, r6, lr}
 80006ae:	2580      	movs	r5, #128	@ 0x80
 80006b0:	2408      	movs	r4, #8
 80006b2:	046d      	lsls	r5, r5, #17
 80006b4:	4b13      	ldr	r3, [pc, #76]	@ (8000704 <iap_i2c+0x58>)
 80006b6:	781a      	ldrb	r2, [r3, #0]
 80006b8:	2a01      	cmp	r2, #1
 80006ba:	d1fc      	bne.n	80006b6 <iap_i2c+0xa>
 80006bc:	4a12      	ldr	r2, [pc, #72]	@ (8000708 <iap_i2c+0x5c>)
 80006be:	67d5      	str	r5, [r2, #124]	@ 0x7c
 80006c0:	f3bf 8f4f 	dsb	sy
 80006c4:	f3bf 8f6f 	isb	sy
 80006c8:	2200      	movs	r2, #0
 80006ca:	701a      	strb	r2, [r3, #0]
 80006cc:	4b0f      	ldr	r3, [pc, #60]	@ (800070c <iap_i2c+0x60>)
 80006ce:	781b      	ldrb	r3, [r3, #0]
 80006d0:	b2da      	uxtb	r2, r3
 80006d2:	2b06      	cmp	r3, #6
 80006d4:	d00f      	beq.n	80006f6 <iap_i2c+0x4a>
 80006d6:	2a77      	cmp	r2, #119	@ 0x77
 80006d8:	d010      	beq.n	80006fc <iap_i2c+0x50>
 80006da:	4b0d      	ldr	r3, [pc, #52]	@ (8000710 <iap_i2c+0x64>)
 80006dc:	601d      	str	r5, [r3, #0]
 80006de:	4b0d      	ldr	r3, [pc, #52]	@ (8000714 <iap_i2c+0x68>)
 80006e0:	681a      	ldr	r2, [r3, #0]
 80006e2:	4322      	orrs	r2, r4
 80006e4:	601a      	str	r2, [r3, #0]
 80006e6:	2201      	movs	r2, #1
 80006e8:	6819      	ldr	r1, [r3, #0]
 80006ea:	430a      	orrs	r2, r1
 80006ec:	601a      	str	r2, [r3, #0]
 80006ee:	681a      	ldr	r2, [r3, #0]
 80006f0:	4322      	orrs	r2, r4
 80006f2:	601a      	str	r2, [r3, #0]
 80006f4:	e7de      	b.n	80006b4 <iap_i2c+0x8>
 80006f6:	f7ff ff41 	bl	800057c <write_code>
 80006fa:	e7ee      	b.n	80006da <iap_i2c+0x2e>
 80006fc:	f7ff ff14 	bl	8000528 <jump_app>
 8000700:	e7eb      	b.n	80006da <iap_i2c+0x2e>
 8000702:	46c0      	nop			@ (mov r8, r8)
 8000704:	2000008e 	.word	0x2000008e
 8000708:	e000e104 	.word	0xe000e104
 800070c:	2000008f 	.word	0x2000008f
 8000710:	e000e100 	.word	0xe000e100
 8000714:	40005800 	.word	0x40005800

08000718 <SystemClock_Config>:
 8000718:	2007      	movs	r0, #7
 800071a:	2302      	movs	r3, #2
 800071c:	4a23      	ldr	r2, [pc, #140]	@ (80007ac <SystemClock_Config+0x94>)
 800071e:	b510      	push	{r4, lr}
 8000720:	6811      	ldr	r1, [r2, #0]
 8000722:	4381      	bics	r1, r0
 8000724:	430b      	orrs	r3, r1
 8000726:	6013      	str	r3, [r2, #0]
 8000728:	6813      	ldr	r3, [r2, #0]
 800072a:	4003      	ands	r3, r0
 800072c:	2b02      	cmp	r3, #2
 800072e:	d1fb      	bne.n	8000728 <SystemClock_Config+0x10>
 8000730:	2280      	movs	r2, #128	@ 0x80
 8000732:	4b1f      	ldr	r3, [pc, #124]	@ (80007b0 <SystemClock_Config+0x98>)
 8000734:	0052      	lsls	r2, r2, #1
 8000736:	6819      	ldr	r1, [r3, #0]
 8000738:	430a      	orrs	r2, r1
 800073a:	601a      	str	r2, [r3, #0]
 800073c:	2280      	movs	r2, #128	@ 0x80
 800073e:	00d2      	lsls	r2, r2, #3
 8000740:	6819      	ldr	r1, [r3, #0]
 8000742:	4211      	tst	r1, r2
 8000744:	d0fc      	beq.n	8000740 <SystemClock_Config+0x28>
 8000746:	68d9      	ldr	r1, [r3, #12]
 8000748:	4a1a      	ldr	r2, [pc, #104]	@ (80007b4 <SystemClock_Config+0x9c>)
 800074a:	4011      	ands	r1, r2
 800074c:	4a1a      	ldr	r2, [pc, #104]	@ (80007b8 <SystemClock_Config+0xa0>)
 800074e:	430a      	orrs	r2, r1
 8000750:	60da      	str	r2, [r3, #12]
 8000752:	2280      	movs	r2, #128	@ 0x80
 8000754:	6819      	ldr	r1, [r3, #0]
 8000756:	0452      	lsls	r2, r2, #17
 8000758:	430a      	orrs	r2, r1
 800075a:	601a      	str	r2, [r3, #0]
 800075c:	2280      	movs	r2, #128	@ 0x80
 800075e:	68d9      	ldr	r1, [r3, #12]
 8000760:	0552      	lsls	r2, r2, #21
 8000762:	430a      	orrs	r2, r1
 8000764:	60da      	str	r2, [r3, #12]
 8000766:	2280      	movs	r2, #128	@ 0x80
 8000768:	0492      	lsls	r2, r2, #18
 800076a:	6819      	ldr	r1, [r3, #0]
 800076c:	4211      	tst	r1, r2
 800076e:	d0fc      	beq.n	800076a <SystemClock_Config+0x52>
 8000770:	689a      	ldr	r2, [r3, #8]
 8000772:	4912      	ldr	r1, [pc, #72]	@ (80007bc <SystemClock_Config+0xa4>)
 8000774:	400a      	ands	r2, r1
 8000776:	609a      	str	r2, [r3, #8]
 8000778:	2207      	movs	r2, #7
 800077a:	6899      	ldr	r1, [r3, #8]
 800077c:	4391      	bics	r1, r2
 800077e:	3a05      	subs	r2, #5
 8000780:	430a      	orrs	r2, r1
 8000782:	2138      	movs	r1, #56	@ 0x38
 8000784:	609a      	str	r2, [r3, #8]
 8000786:	689a      	ldr	r2, [r3, #8]
 8000788:	400a      	ands	r2, r1
 800078a:	2a10      	cmp	r2, #16
 800078c:	d1fb      	bne.n	8000786 <SystemClock_Config+0x6e>
 800078e:	689a      	ldr	r2, [r3, #8]
 8000790:	490b      	ldr	r1, [pc, #44]	@ (80007c0 <SystemClock_Config+0xa8>)
 8000792:	480c      	ldr	r0, [pc, #48]	@ (80007c4 <SystemClock_Config+0xac>)
 8000794:	400a      	ands	r2, r1
 8000796:	609a      	str	r2, [r3, #8]
 8000798:	f000 fcf0 	bl	800117c <LL_SetSystemCoreClock>
 800079c:	2003      	movs	r0, #3
 800079e:	f000 f8d5 	bl	800094c <HAL_InitTick>
 80007a2:	2800      	cmp	r0, #0
 80007a4:	d001      	beq.n	80007aa <SystemClock_Config+0x92>
 80007a6:	b672      	cpsid	i
 80007a8:	e7fe      	b.n	80007a8 <SystemClock_Config+0x90>
 80007aa:	bd10      	pop	{r4, pc}
 80007ac:	40022000 	.word	0x40022000
 80007b0:	40021000 	.word	0x40021000
 80007b4:	1fff808c 	.word	0x1fff808c
 80007b8:	20000802 	.word	0x20000802
 80007bc:	fffff0ff 	.word	0xfffff0ff
 80007c0:	ffff8fff 	.word	0xffff8fff
 80007c4:	03d09000 	.word	0x03d09000

080007c8 <main>:
 80007c8:	b5f0      	push	{r4, r5, r6, r7, lr}
 80007ca:	2501      	movs	r5, #1
 80007cc:	2780      	movs	r7, #128	@ 0x80
 80007ce:	26a0      	movs	r6, #160	@ 0xa0
 80007d0:	b087      	sub	sp, #28
 80007d2:	f000 f8e3 	bl	800099c <HAL_Init>
 80007d6:	f7ff ff9f 	bl	8000718 <SystemClock_Config>
 80007da:	f7ff fd5f 	bl	800029c <MX_GPIO_Init>
 80007de:	f7ff fd1b 	bl	8000218 <MX_CRC_Init>
 80007e2:	2214      	movs	r2, #20
 80007e4:	2100      	movs	r1, #0
 80007e6:	a801      	add	r0, sp, #4
 80007e8:	f000 fcce 	bl	8001188 <memset>
 80007ec:	4b24      	ldr	r3, [pc, #144]	@ (8000880 <main+0xb8>)
 80007ee:	05f6      	lsls	r6, r6, #23
 80007f0:	6b5a      	ldr	r2, [r3, #52]	@ 0x34
 80007f2:	013f      	lsls	r7, r7, #4
 80007f4:	432a      	orrs	r2, r5
 80007f6:	635a      	str	r2, [r3, #52]	@ 0x34
 80007f8:	6b5b      	ldr	r3, [r3, #52]	@ 0x34
 80007fa:	2200      	movs	r2, #0
 80007fc:	402b      	ands	r3, r5
 80007fe:	0039      	movs	r1, r7
 8000800:	0030      	movs	r0, r6
 8000802:	9300      	str	r3, [sp, #0]
 8000804:	9b00      	ldr	r3, [sp, #0]
 8000806:	f000 fbbb 	bl	8000f80 <HAL_GPIO_WritePin>
 800080a:	2180      	movs	r1, #128	@ 0x80
 800080c:	2400      	movs	r4, #0
 800080e:	2200      	movs	r2, #0
 8000810:	0030      	movs	r0, r6
 8000812:	0149      	lsls	r1, r1, #5
 8000814:	f000 fbb4 	bl	8000f80 <HAL_GPIO_WritePin>
 8000818:	0030      	movs	r0, r6
 800081a:	a901      	add	r1, sp, #4
 800081c:	9402      	str	r4, [sp, #8]
 800081e:	9404      	str	r4, [sp, #16]
 8000820:	9701      	str	r7, [sp, #4]
 8000822:	9503      	str	r5, [sp, #12]
 8000824:	f000 fafa 	bl	8000e1c <HAL_GPIO_Init>
 8000828:	2380      	movs	r3, #128	@ 0x80
 800082a:	0030      	movs	r0, r6
 800082c:	015b      	lsls	r3, r3, #5
 800082e:	a901      	add	r1, sp, #4
 8000830:	9301      	str	r3, [sp, #4]
 8000832:	9402      	str	r4, [sp, #8]
 8000834:	9404      	str	r4, [sp, #16]
 8000836:	9503      	str	r5, [sp, #12]
 8000838:	f000 faf0 	bl	8000e1c <HAL_GPIO_Init>
 800083c:	2096      	movs	r0, #150	@ 0x96
 800083e:	0040      	lsls	r0, r0, #1
 8000840:	f000 fc86 	bl	8001150 <LL_mDelay>
 8000844:	6933      	ldr	r3, [r6, #16]
 8000846:	4c0f      	ldr	r4, [pc, #60]	@ (8000884 <main+0xbc>)
 8000848:	423b      	tst	r3, r7
 800084a:	d10f      	bne.n	800086c <main+0xa4>
 800084c:	2280      	movs	r2, #128	@ 0x80
 800084e:	6933      	ldr	r3, [r6, #16]
 8000850:	0152      	lsls	r2, r2, #5
 8000852:	4213      	tst	r3, r2
 8000854:	d10a      	bne.n	800086c <main+0xa4>
 8000856:	f7ff fd2f 	bl	80002b8 <MX_I2C2_Init>
 800085a:	6823      	ldr	r3, [r4, #0]
 800085c:	431d      	orrs	r5, r3
 800085e:	6025      	str	r5, [r4, #0]
 8000860:	2308      	movs	r3, #8
 8000862:	6822      	ldr	r2, [r4, #0]
 8000864:	4313      	orrs	r3, r2
 8000866:	6023      	str	r3, [r4, #0]
 8000868:	f7ff ff20 	bl	80006ac <iap_i2c>
 800086c:	f7ff fe5c 	bl	8000528 <jump_app>
 8000870:	f7ff fd22 	bl	80002b8 <MX_I2C2_Init>
 8000874:	2301      	movs	r3, #1
 8000876:	6822      	ldr	r2, [r4, #0]
 8000878:	4313      	orrs	r3, r2
 800087a:	6023      	str	r3, [r4, #0]
 800087c:	e7f0      	b.n	8000860 <main+0x98>
 800087e:	46c0      	nop			@ (mov r8, r8)
 8000880:	40021000 	.word	0x40021000
 8000884:	40005800 	.word	0x40005800

08000888 <Error_Handler>:
 8000888:	b672      	cpsid	i
 800088a:	e7fe      	b.n	800088a <Error_Handler+0x2>

0800088c <HAL_MspInit>:
 800088c:	2101      	movs	r1, #1
 800088e:	4b0a      	ldr	r3, [pc, #40]	@ (80008b8 <HAL_MspInit+0x2c>)
 8000890:	b082      	sub	sp, #8
 8000892:	6c1a      	ldr	r2, [r3, #64]	@ 0x40
 8000894:	430a      	orrs	r2, r1
 8000896:	641a      	str	r2, [r3, #64]	@ 0x40
 8000898:	6c1a      	ldr	r2, [r3, #64]	@ 0x40
 800089a:	400a      	ands	r2, r1
 800089c:	2180      	movs	r1, #128	@ 0x80
 800089e:	9200      	str	r2, [sp, #0]
 80008a0:	9a00      	ldr	r2, [sp, #0]
 80008a2:	6bda      	ldr	r2, [r3, #60]	@ 0x3c
 80008a4:	0549      	lsls	r1, r1, #21
 80008a6:	430a      	orrs	r2, r1
 80008a8:	63da      	str	r2, [r3, #60]	@ 0x3c
 80008aa:	6bdb      	ldr	r3, [r3, #60]	@ 0x3c
 80008ac:	400b      	ands	r3, r1
 80008ae:	9301      	str	r3, [sp, #4]
 80008b0:	9b01      	ldr	r3, [sp, #4]
 80008b2:	b002      	add	sp, #8
 80008b4:	4770      	bx	lr
 80008b6:	46c0      	nop			@ (mov r8, r8)
 80008b8:	40021000 	.word	0x40021000

080008bc <NMI_Handler>:
 80008bc:	e7fe      	b.n	80008bc <NMI_Handler>

080008be <HardFault_Handler>:
 80008be:	e7fe      	b.n	80008be <HardFault_Handler>

080008c0 <SVC_Handler>:
 80008c0:	4770      	bx	lr

080008c2 <PendSV_Handler>:
 80008c2:	4770      	bx	lr

080008c4 <SysTick_Handler>:
 80008c4:	b510      	push	{r4, lr}
 80008c6:	f000 f87d 	bl	80009c4 <HAL_IncTick>
 80008ca:	bd10      	pop	{r4, pc}

080008cc <SystemInit>:
 80008cc:	4770      	bx	lr
	...

080008d0 <Reset_Handler>:
 80008d0:	480d      	ldr	r0, [pc, #52]	@ (8000908 <LoopForever+0x2>)
 80008d2:	4685      	mov	sp, r0
 80008d4:	f7ff fffa 	bl	80008cc <SystemInit>
 80008d8:	480c      	ldr	r0, [pc, #48]	@ (800090c <LoopForever+0x6>)
 80008da:	490d      	ldr	r1, [pc, #52]	@ (8000910 <LoopForever+0xa>)
 80008dc:	4a0d      	ldr	r2, [pc, #52]	@ (8000914 <LoopForever+0xe>)
 80008de:	2300      	movs	r3, #0
 80008e0:	e002      	b.n	80008e8 <LoopCopyDataInit>

080008e2 <CopyDataInit>:
 80008e2:	58d4      	ldr	r4, [r2, r3]
 80008e4:	50c4      	str	r4, [r0, r3]
 80008e6:	3304      	adds	r3, #4

080008e8 <LoopCopyDataInit>:
 80008e8:	18c4      	adds	r4, r0, r3
 80008ea:	428c      	cmp	r4, r1
 80008ec:	d3f9      	bcc.n	80008e2 <CopyDataInit>
 80008ee:	4a0a      	ldr	r2, [pc, #40]	@ (8000918 <LoopForever+0x12>)
 80008f0:	4c0a      	ldr	r4, [pc, #40]	@ (800091c <LoopForever+0x16>)
 80008f2:	2300      	movs	r3, #0
 80008f4:	e001      	b.n	80008fa <LoopFillZerobss>

080008f6 <FillZerobss>:
 80008f6:	6013      	str	r3, [r2, #0]
 80008f8:	3204      	adds	r2, #4

080008fa <LoopFillZerobss>:
 80008fa:	42a2      	cmp	r2, r4
 80008fc:	d3fb      	bcc.n	80008f6 <FillZerobss>
 80008fe:	f000 fc4b 	bl	8001198 <__libc_init_array>
 8000902:	f7ff ff61 	bl	80007c8 <main>

08000906 <LoopForever>:
 8000906:	e7fe      	b.n	8000906 <LoopForever>
 8000908:	20002000 	.word	0x20002000
 800090c:	20000000 	.word	0x20000000
 8000910:	20000044 	.word	0x20000044
 8000914:	08001210 	.word	0x08001210
 8000918:	20000044 	.word	0x20000044
 800091c:	200008bc 	.word	0x200008bc

08000920 <ADC1_IRQHandler>:
 8000920:	e7fe      	b.n	8000920 <ADC1_IRQHandler>

08000922 <HAL_MspDeInit>:
 8000922:	4770      	bx	lr

08000924 <HAL_DeInit>:
 8000924:	2201      	movs	r2, #1
 8000926:	b510      	push	{r4, lr}
 8000928:	2400      	movs	r4, #0
 800092a:	4b07      	ldr	r3, [pc, #28]	@ (8000948 <HAL_DeInit+0x24>)
 800092c:	4252      	negs	r2, r2
 800092e:	62da      	str	r2, [r3, #44]	@ 0x2c
 8000930:	62dc      	str	r4, [r3, #44]	@ 0x2c
 8000932:	631a      	str	r2, [r3, #48]	@ 0x30
 8000934:	631c      	str	r4, [r3, #48]	@ 0x30
 8000936:	629a      	str	r2, [r3, #40]	@ 0x28
 8000938:	629c      	str	r4, [r3, #40]	@ 0x28
 800093a:	625a      	str	r2, [r3, #36]	@ 0x24
 800093c:	625c      	str	r4, [r3, #36]	@ 0x24
 800093e:	f7ff fff0 	bl	8000922 <HAL_MspDeInit>
 8000942:	0020      	movs	r0, r4
 8000944:	bd10      	pop	{r4, pc}
 8000946:	46c0      	nop			@ (mov r8, r8)
 8000948:	40021000 	.word	0x40021000

0800094c <HAL_InitTick>:
 800094c:	b570      	push	{r4, r5, r6, lr}
 800094e:	4b10      	ldr	r3, [pc, #64]	@ (8000990 <HAL_InitTick+0x44>)
 8000950:	0005      	movs	r5, r0
 8000952:	7819      	ldrb	r1, [r3, #0]
 8000954:	2900      	cmp	r1, #0
 8000956:	d101      	bne.n	800095c <HAL_InitTick+0x10>
 8000958:	2001      	movs	r0, #1
 800095a:	bd70      	pop	{r4, r5, r6, pc}
 800095c:	20fa      	movs	r0, #250	@ 0xfa
 800095e:	0080      	lsls	r0, r0, #2
 8000960:	f7ff fbce 	bl	8000100 <__udivsi3>
 8000964:	4c0b      	ldr	r4, [pc, #44]	@ (8000994 <HAL_InitTick+0x48>)
 8000966:	0001      	movs	r1, r0
 8000968:	6820      	ldr	r0, [r4, #0]
 800096a:	f7ff fbc9 	bl	8000100 <__udivsi3>
 800096e:	f000 f865 	bl	8000a3c <HAL_SYSTICK_Config>
 8000972:	1e04      	subs	r4, r0, #0
 8000974:	d1f0      	bne.n	8000958 <HAL_InitTick+0xc>
 8000976:	2d03      	cmp	r5, #3
 8000978:	d8ee      	bhi.n	8000958 <HAL_InitTick+0xc>
 800097a:	0002      	movs	r2, r0
 800097c:	2001      	movs	r0, #1
 800097e:	0029      	movs	r1, r5
 8000980:	4240      	negs	r0, r0
 8000982:	f000 f831 	bl	80009e8 <HAL_NVIC_SetPriority>
 8000986:	4b04      	ldr	r3, [pc, #16]	@ (8000998 <HAL_InitTick+0x4c>)
 8000988:	0020      	movs	r0, r4
 800098a:	601d      	str	r5, [r3, #0]
 800098c:	e7e5      	b.n	800095a <HAL_InitTick+0xe>
 800098e:	46c0      	nop			@ (mov r8, r8)
 8000990:	20000004 	.word	0x20000004
 8000994:	20000000 	.word	0x20000000
 8000998:	20000008 	.word	0x20000008

0800099c <HAL_Init>:
 800099c:	2380      	movs	r3, #128	@ 0x80
 800099e:	4a08      	ldr	r2, [pc, #32]	@ (80009c0 <HAL_Init+0x24>)
 80009a0:	005b      	lsls	r3, r3, #1
 80009a2:	6811      	ldr	r1, [r2, #0]
 80009a4:	b510      	push	{r4, lr}
 80009a6:	430b      	orrs	r3, r1
 80009a8:	2003      	movs	r0, #3
 80009aa:	6013      	str	r3, [r2, #0]
 80009ac:	f7ff ffce 	bl	800094c <HAL_InitTick>
 80009b0:	1e04      	subs	r4, r0, #0
 80009b2:	d103      	bne.n	80009bc <HAL_Init+0x20>
 80009b4:	f7ff ff6a 	bl	800088c <HAL_MspInit>
 80009b8:	0020      	movs	r0, r4
 80009ba:	bd10      	pop	{r4, pc}
 80009bc:	2401      	movs	r4, #1
 80009be:	e7fb      	b.n	80009b8 <HAL_Init+0x1c>
 80009c0:	40022000 	.word	0x40022000

080009c4 <HAL_IncTick>:
 80009c4:	4a03      	ldr	r2, [pc, #12]	@ (80009d4 <HAL_IncTick+0x10>)
 80009c6:	4b04      	ldr	r3, [pc, #16]	@ (80009d8 <HAL_IncTick+0x14>)
 80009c8:	6811      	ldr	r1, [r2, #0]
 80009ca:	781b      	ldrb	r3, [r3, #0]
 80009cc:	185b      	adds	r3, r3, r1
 80009ce:	6013      	str	r3, [r2, #0]
 80009d0:	4770      	bx	lr
 80009d2:	46c0      	nop			@ (mov r8, r8)
 80009d4:	2000089c 	.word	0x2000089c
 80009d8:	20000004 	.word	0x20000004

080009dc <HAL_GetTick>:
 80009dc:	4b01      	ldr	r3, [pc, #4]	@ (80009e4 <HAL_GetTick+0x8>)
 80009de:	6818      	ldr	r0, [r3, #0]
 80009e0:	4770      	bx	lr
 80009e2:	46c0      	nop			@ (mov r8, r8)
 80009e4:	2000089c 	.word	0x2000089c

080009e8 <HAL_NVIC_SetPriority>:
 80009e8:	b510      	push	{r4, lr}
 80009ea:	24ff      	movs	r4, #255	@ 0xff
 80009ec:	2203      	movs	r2, #3
 80009ee:	000b      	movs	r3, r1
 80009f0:	0021      	movs	r1, r4
 80009f2:	4002      	ands	r2, r0
 80009f4:	00d2      	lsls	r2, r2, #3
 80009f6:	4091      	lsls	r1, r2
 80009f8:	019b      	lsls	r3, r3, #6
 80009fa:	4023      	ands	r3, r4
 80009fc:	43c9      	mvns	r1, r1
 80009fe:	4093      	lsls	r3, r2
 8000a00:	2800      	cmp	r0, #0
 8000a02:	db0a      	blt.n	8000a1a <HAL_NVIC_SetPriority+0x32>
 8000a04:	24c0      	movs	r4, #192	@ 0xc0
 8000a06:	4a0b      	ldr	r2, [pc, #44]	@ (8000a34 <HAL_NVIC_SetPriority+0x4c>)
 8000a08:	0880      	lsrs	r0, r0, #2
 8000a0a:	0080      	lsls	r0, r0, #2
 8000a0c:	1880      	adds	r0, r0, r2
 8000a0e:	00a4      	lsls	r4, r4, #2
 8000a10:	5902      	ldr	r2, [r0, r4]
 8000a12:	400a      	ands	r2, r1
 8000a14:	4313      	orrs	r3, r2
 8000a16:	5103      	str	r3, [r0, r4]
 8000a18:	bd10      	pop	{r4, pc}
 8000a1a:	220f      	movs	r2, #15
 8000a1c:	4010      	ands	r0, r2
 8000a1e:	3808      	subs	r0, #8
 8000a20:	4a05      	ldr	r2, [pc, #20]	@ (8000a38 <HAL_NVIC_SetPriority+0x50>)
 8000a22:	0880      	lsrs	r0, r0, #2
 8000a24:	0080      	lsls	r0, r0, #2
 8000a26:	1880      	adds	r0, r0, r2
 8000a28:	69c2      	ldr	r2, [r0, #28]
 8000a2a:	4011      	ands	r1, r2
 8000a2c:	4319      	orrs	r1, r3
 8000a2e:	61c1      	str	r1, [r0, #28]
 8000a30:	e7f2      	b.n	8000a18 <HAL_NVIC_SetPriority+0x30>
 8000a32:	46c0      	nop			@ (mov r8, r8)
 8000a34:	e000e100 	.word	0xe000e100
 8000a38:	e000ed00 	.word	0xe000ed00

08000a3c <HAL_SYSTICK_Config>:
 8000a3c:	2280      	movs	r2, #128	@ 0x80
 8000a3e:	1e43      	subs	r3, r0, #1
 8000a40:	0452      	lsls	r2, r2, #17
 8000a42:	2001      	movs	r0, #1
 8000a44:	4293      	cmp	r3, r2
 8000a46:	d20d      	bcs.n	8000a64 <HAL_SYSTICK_Config+0x28>
 8000a48:	21c0      	movs	r1, #192	@ 0xc0
 8000a4a:	4a07      	ldr	r2, [pc, #28]	@ (8000a68 <HAL_SYSTICK_Config+0x2c>)
 8000a4c:	4807      	ldr	r0, [pc, #28]	@ (8000a6c <HAL_SYSTICK_Config+0x30>)
 8000a4e:	6053      	str	r3, [r2, #4]
 8000a50:	6a03      	ldr	r3, [r0, #32]
 8000a52:	0609      	lsls	r1, r1, #24
 8000a54:	021b      	lsls	r3, r3, #8
 8000a56:	0a1b      	lsrs	r3, r3, #8
 8000a58:	430b      	orrs	r3, r1
 8000a5a:	6203      	str	r3, [r0, #32]
 8000a5c:	2000      	movs	r0, #0
 8000a5e:	2307      	movs	r3, #7
 8000a60:	6090      	str	r0, [r2, #8]
 8000a62:	6013      	str	r3, [r2, #0]
 8000a64:	4770      	bx	lr
 8000a66:	46c0      	nop			@ (mov r8, r8)
 8000a68:	e000e010 	.word	0xe000e010
 8000a6c:	e000ed00 	.word	0xe000ed00

08000a70 <CRC_Handle_8>:
 8000a70:	b5f7      	push	{r0, r1, r2, r4, r5, r6, r7, lr}
 8000a72:	000e      	movs	r6, r1
 8000a74:	0895      	lsrs	r5, r2, #2
 8000a76:	00ad      	lsls	r5, r5, #2
 8000a78:	186b      	adds	r3, r5, r1
 8000a7a:	9301      	str	r3, [sp, #4]
 8000a7c:	6803      	ldr	r3, [r0, #0]
 8000a7e:	9c01      	ldr	r4, [sp, #4]
 8000a80:	42b4      	cmp	r4, r6
 8000a82:	d109      	bne.n	8000a98 <CRC_Handle_8+0x28>
 8000a84:	2403      	movs	r4, #3
 8000a86:	0016      	movs	r6, r2
 8000a88:	4026      	ands	r6, r4
 8000a8a:	4222      	tst	r2, r4
 8000a8c:	d019      	beq.n	8000ac2 <CRC_Handle_8+0x52>
 8000a8e:	2e01      	cmp	r6, #1
 8000a90:	d10f      	bne.n	8000ab2 <CRC_Handle_8+0x42>
 8000a92:	5d4a      	ldrb	r2, [r1, r5]
 8000a94:	701a      	strb	r2, [r3, #0]
 8000a96:	e014      	b.n	8000ac2 <CRC_Handle_8+0x52>
 8000a98:	7834      	ldrb	r4, [r6, #0]
 8000a9a:	7877      	ldrb	r7, [r6, #1]
 8000a9c:	0624      	lsls	r4, r4, #24
 8000a9e:	043f      	lsls	r7, r7, #16
 8000aa0:	433c      	orrs	r4, r7
 8000aa2:	78f7      	ldrb	r7, [r6, #3]
 8000aa4:	433c      	orrs	r4, r7
 8000aa6:	78b7      	ldrb	r7, [r6, #2]
 8000aa8:	3604      	adds	r6, #4
 8000aaa:	023f      	lsls	r7, r7, #8
 8000aac:	433c      	orrs	r4, r7
 8000aae:	601c      	str	r4, [r3, #0]
 8000ab0:	e7e5      	b.n	8000a7e <CRC_Handle_8+0xe>
 8000ab2:	186c      	adds	r4, r5, r1
 8000ab4:	5d49      	ldrb	r1, [r1, r5]
 8000ab6:	7862      	ldrb	r2, [r4, #1]
 8000ab8:	0209      	lsls	r1, r1, #8
 8000aba:	430a      	orrs	r2, r1
 8000abc:	801a      	strh	r2, [r3, #0]
 8000abe:	2e02      	cmp	r6, #2
 8000ac0:	d102      	bne.n	8000ac8 <CRC_Handle_8+0x58>
 8000ac2:	6803      	ldr	r3, [r0, #0]
 8000ac4:	6818      	ldr	r0, [r3, #0]
 8000ac6:	bdfe      	pop	{r1, r2, r3, r4, r5, r6, r7, pc}
 8000ac8:	78a2      	ldrb	r2, [r4, #2]
 8000aca:	e7e3      	b.n	8000a94 <CRC_Handle_8+0x24>

08000acc <CRC_Handle_16>:
 8000acc:	b5f0      	push	{r4, r5, r6, r7, lr}
 8000ace:	000d      	movs	r5, r1
 8000ad0:	2600      	movs	r6, #0
 8000ad2:	6800      	ldr	r0, [r0, #0]
 8000ad4:	0854      	lsrs	r4, r2, #1
 8000ad6:	42b4      	cmp	r4, r6
 8000ad8:	d106      	bne.n	8000ae8 <CRC_Handle_16+0x1c>
 8000ada:	07d2      	lsls	r2, r2, #31
 8000adc:	d502      	bpl.n	8000ae4 <CRC_Handle_16+0x18>
 8000ade:	00a4      	lsls	r4, r4, #2
 8000ae0:	5a63      	ldrh	r3, [r4, r1]
 8000ae2:	8003      	strh	r3, [r0, #0]
 8000ae4:	6800      	ldr	r0, [r0, #0]
 8000ae6:	bdf0      	pop	{r4, r5, r6, r7, pc}
 8000ae8:	882b      	ldrh	r3, [r5, #0]
 8000aea:	886f      	ldrh	r7, [r5, #2]
 8000aec:	041b      	lsls	r3, r3, #16
 8000aee:	433b      	orrs	r3, r7
 8000af0:	6003      	str	r3, [r0, #0]
 8000af2:	3601      	adds	r6, #1
 8000af4:	3504      	adds	r5, #4
 8000af6:	e7ee      	b.n	8000ad6 <CRC_Handle_16+0xa>

08000af8 <HAL_CRC_Init>:
 8000af8:	b510      	push	{r4, lr}
 8000afa:	1e04      	subs	r4, r0, #0
 8000afc:	d101      	bne.n	8000b02 <HAL_CRC_Init+0xa>
 8000afe:	2001      	movs	r0, #1
 8000b00:	bd10      	pop	{r4, pc}
 8000b02:	7f43      	ldrb	r3, [r0, #29]
 8000b04:	b2da      	uxtb	r2, r3
 8000b06:	2b00      	cmp	r3, #0
 8000b08:	d102      	bne.n	8000b10 <HAL_CRC_Init+0x18>
 8000b0a:	7702      	strb	r2, [r0, #28]
 8000b0c:	f7ff fba0 	bl	8000250 <HAL_CRC_MspInit>
 8000b10:	2302      	movs	r3, #2
 8000b12:	7763      	strb	r3, [r4, #29]
 8000b14:	7923      	ldrb	r3, [r4, #4]
 8000b16:	2b00      	cmp	r3, #0
 8000b18:	d11c      	bne.n	8000b54 <HAL_CRC_Init+0x5c>
 8000b1a:	2118      	movs	r1, #24
 8000b1c:	6823      	ldr	r3, [r4, #0]
 8000b1e:	4a12      	ldr	r2, [pc, #72]	@ (8000b68 <HAL_CRC_Init+0x70>)
 8000b20:	615a      	str	r2, [r3, #20]
 8000b22:	689a      	ldr	r2, [r3, #8]
 8000b24:	438a      	bics	r2, r1
 8000b26:	609a      	str	r2, [r3, #8]
 8000b28:	7962      	ldrb	r2, [r4, #5]
 8000b2a:	6823      	ldr	r3, [r4, #0]
 8000b2c:	2a00      	cmp	r2, #0
 8000b2e:	d119      	bne.n	8000b64 <HAL_CRC_Init+0x6c>
 8000b30:	3a01      	subs	r2, #1
 8000b32:	2160      	movs	r1, #96	@ 0x60
 8000b34:	611a      	str	r2, [r3, #16]
 8000b36:	689a      	ldr	r2, [r3, #8]
 8000b38:	2000      	movs	r0, #0
 8000b3a:	438a      	bics	r2, r1
 8000b3c:	6961      	ldr	r1, [r4, #20]
 8000b3e:	430a      	orrs	r2, r1
 8000b40:	2180      	movs	r1, #128	@ 0x80
 8000b42:	609a      	str	r2, [r3, #8]
 8000b44:	689a      	ldr	r2, [r3, #8]
 8000b46:	438a      	bics	r2, r1
 8000b48:	69a1      	ldr	r1, [r4, #24]
 8000b4a:	430a      	orrs	r2, r1
 8000b4c:	609a      	str	r2, [r3, #8]
 8000b4e:	2301      	movs	r3, #1
 8000b50:	7763      	strb	r3, [r4, #29]
 8000b52:	e7d5      	b.n	8000b00 <HAL_CRC_Init+0x8>
 8000b54:	0020      	movs	r0, r4
 8000b56:	68e2      	ldr	r2, [r4, #12]
 8000b58:	68a1      	ldr	r1, [r4, #8]
 8000b5a:	f000 f845 	bl	8000be8 <HAL_CRCEx_Polynomial_Set>
 8000b5e:	2800      	cmp	r0, #0
 8000b60:	d0e2      	beq.n	8000b28 <HAL_CRC_Init+0x30>
 8000b62:	e7cc      	b.n	8000afe <HAL_CRC_Init+0x6>
 8000b64:	6922      	ldr	r2, [r4, #16]
 8000b66:	e7e4      	b.n	8000b32 <HAL_CRC_Init+0x3a>
 8000b68:	04c11db7 	.word	0x04c11db7

08000b6c <HAL_CRC_DeInit>:
 8000b6c:	b570      	push	{r4, r5, r6, lr}
 8000b6e:	0004      	movs	r4, r0
 8000b70:	2001      	movs	r0, #1
 8000b72:	2c00      	cmp	r4, #0
 8000b74:	d012      	beq.n	8000b9c <HAL_CRC_DeInit+0x30>
 8000b76:	7f63      	ldrb	r3, [r4, #29]
 8000b78:	b2d8      	uxtb	r0, r3
 8000b7a:	2b02      	cmp	r3, #2
 8000b7c:	d00e      	beq.n	8000b9c <HAL_CRC_DeInit+0x30>
 8000b7e:	2302      	movs	r3, #2
 8000b80:	2201      	movs	r2, #1
 8000b82:	2500      	movs	r5, #0
 8000b84:	7763      	strb	r3, [r4, #29]
 8000b86:	6823      	ldr	r3, [r4, #0]
 8000b88:	0020      	movs	r0, r4
 8000b8a:	6899      	ldr	r1, [r3, #8]
 8000b8c:	430a      	orrs	r2, r1
 8000b8e:	609a      	str	r2, [r3, #8]
 8000b90:	605d      	str	r5, [r3, #4]
 8000b92:	f7ff fb73 	bl	800027c <HAL_CRC_MspDeInit>
 8000b96:	0028      	movs	r0, r5
 8000b98:	7765      	strb	r5, [r4, #29]
 8000b9a:	7725      	strb	r5, [r4, #28]
 8000b9c:	bd70      	pop	{r4, r5, r6, pc}

08000b9e <HAL_CRC_Calculate>:
 8000b9e:	2302      	movs	r3, #2
 8000ba0:	b570      	push	{r4, r5, r6, lr}
 8000ba2:	7743      	strb	r3, [r0, #29]
 8000ba4:	0004      	movs	r4, r0
 8000ba6:	6803      	ldr	r3, [r0, #0]
 8000ba8:	2001      	movs	r0, #1
 8000baa:	689d      	ldr	r5, [r3, #8]
 8000bac:	4328      	orrs	r0, r5
 8000bae:	6098      	str	r0, [r3, #8]
 8000bb0:	6a20      	ldr	r0, [r4, #32]
 8000bb2:	2802      	cmp	r0, #2
 8000bb4:	d014      	beq.n	8000be0 <HAL_CRC_Calculate+0x42>
 8000bb6:	2803      	cmp	r0, #3
 8000bb8:	d005      	beq.n	8000bc6 <HAL_CRC_Calculate+0x28>
 8000bba:	2801      	cmp	r0, #1
 8000bbc:	d00c      	beq.n	8000bd8 <HAL_CRC_Calculate+0x3a>
 8000bbe:	2000      	movs	r0, #0
 8000bc0:	2301      	movs	r3, #1
 8000bc2:	7763      	strb	r3, [r4, #29]
 8000bc4:	bd70      	pop	{r4, r5, r6, pc}
 8000bc6:	0092      	lsls	r2, r2, #2
 8000bc8:	188a      	adds	r2, r1, r2
 8000bca:	4291      	cmp	r1, r2
 8000bcc:	d101      	bne.n	8000bd2 <HAL_CRC_Calculate+0x34>
 8000bce:	6818      	ldr	r0, [r3, #0]
 8000bd0:	e7f6      	b.n	8000bc0 <HAL_CRC_Calculate+0x22>
 8000bd2:	c901      	ldmia	r1!, {r0}
 8000bd4:	6018      	str	r0, [r3, #0]
 8000bd6:	e7f8      	b.n	8000bca <HAL_CRC_Calculate+0x2c>
 8000bd8:	0020      	movs	r0, r4
 8000bda:	f7ff ff49 	bl	8000a70 <CRC_Handle_8>
 8000bde:	e7ef      	b.n	8000bc0 <HAL_CRC_Calculate+0x22>
 8000be0:	0020      	movs	r0, r4
 8000be2:	f7ff ff73 	bl	8000acc <CRC_Handle_16>
 8000be6:	e7eb      	b.n	8000bc0 <HAL_CRC_Calculate+0x22>

08000be8 <HAL_CRCEx_Polynomial_Set>:
 8000be8:	b530      	push	{r4, r5, lr}
 8000bea:	2501      	movs	r5, #1
 8000bec:	0004      	movs	r4, r0
 8000bee:	0028      	movs	r0, r5
 8000bf0:	4229      	tst	r1, r5
 8000bf2:	d00f      	beq.n	8000c14 <HAL_CRCEx_Polynomial_Set+0x2c>
 8000bf4:	231f      	movs	r3, #31
 8000bf6:	3b01      	subs	r3, #1
 8000bf8:	d322      	bcc.n	8000c40 <HAL_CRCEx_Polynomial_Set+0x58>
 8000bfa:	0008      	movs	r0, r1
 8000bfc:	40d8      	lsrs	r0, r3
 8000bfe:	4228      	tst	r0, r5
 8000c00:	d0f9      	beq.n	8000bf6 <HAL_CRCEx_Polynomial_Set+0xe>
 8000c02:	2a10      	cmp	r2, #16
 8000c04:	d015      	beq.n	8000c32 <HAL_CRCEx_Polynomial_Set+0x4a>
 8000c06:	2a10      	cmp	r2, #16
 8000c08:	d805      	bhi.n	8000c16 <HAL_CRCEx_Polynomial_Set+0x2e>
 8000c0a:	2a00      	cmp	r2, #0
 8000c0c:	d008      	beq.n	8000c20 <HAL_CRCEx_Polynomial_Set+0x38>
 8000c0e:	2001      	movs	r0, #1
 8000c10:	2a08      	cmp	r2, #8
 8000c12:	d012      	beq.n	8000c3a <HAL_CRCEx_Polynomial_Set+0x52>
 8000c14:	bd30      	pop	{r4, r5, pc}
 8000c16:	2001      	movs	r0, #1
 8000c18:	2a18      	cmp	r2, #24
 8000c1a:	d1fb      	bne.n	8000c14 <HAL_CRCEx_Polynomial_Set+0x2c>
 8000c1c:	2b06      	cmp	r3, #6
 8000c1e:	d8f9      	bhi.n	8000c14 <HAL_CRCEx_Polynomial_Set+0x2c>
 8000c20:	6820      	ldr	r0, [r4, #0]
 8000c22:	6141      	str	r1, [r0, #20]
 8000c24:	2118      	movs	r1, #24
 8000c26:	6883      	ldr	r3, [r0, #8]
 8000c28:	438b      	bics	r3, r1
 8000c2a:	4313      	orrs	r3, r2
 8000c2c:	6083      	str	r3, [r0, #8]
 8000c2e:	2000      	movs	r0, #0
 8000c30:	e7f0      	b.n	8000c14 <HAL_CRCEx_Polynomial_Set+0x2c>
 8000c32:	2001      	movs	r0, #1
 8000c34:	2b07      	cmp	r3, #7
 8000c36:	d9f3      	bls.n	8000c20 <HAL_CRCEx_Polynomial_Set+0x38>
 8000c38:	e7ec      	b.n	8000c14 <HAL_CRCEx_Polynomial_Set+0x2c>
 8000c3a:	2b0f      	cmp	r3, #15
 8000c3c:	d8ea      	bhi.n	8000c14 <HAL_CRCEx_Polynomial_Set+0x2c>
 8000c3e:	e7ef      	b.n	8000c20 <HAL_CRCEx_Polynomial_Set+0x38>
 8000c40:	2001      	movs	r0, #1
 8000c42:	2a10      	cmp	r2, #16
 8000c44:	d1df      	bne.n	8000c06 <HAL_CRCEx_Polynomial_Set+0x1e>
 8000c46:	e7e5      	b.n	8000c14 <HAL_CRCEx_Polynomial_Set+0x2c>

08000c48 <HAL_FLASH_Unlock>:
 8000c48:	2000      	movs	r0, #0
 8000c4a:	4b05      	ldr	r3, [pc, #20]	@ (8000c60 <HAL_FLASH_Unlock+0x18>)
 8000c4c:	695a      	ldr	r2, [r3, #20]
 8000c4e:	4282      	cmp	r2, r0
 8000c50:	da05      	bge.n	8000c5e <HAL_FLASH_Unlock+0x16>
 8000c52:	4a04      	ldr	r2, [pc, #16]	@ (8000c64 <HAL_FLASH_Unlock+0x1c>)
 8000c54:	609a      	str	r2, [r3, #8]
 8000c56:	4a04      	ldr	r2, [pc, #16]	@ (8000c68 <HAL_FLASH_Unlock+0x20>)
 8000c58:	609a      	str	r2, [r3, #8]
 8000c5a:	6958      	ldr	r0, [r3, #20]
 8000c5c:	0fc0      	lsrs	r0, r0, #31
 8000c5e:	4770      	bx	lr
 8000c60:	40022000 	.word	0x40022000
 8000c64:	45670123 	.word	0x45670123
 8000c68:	cdef89ab 	.word	0xcdef89ab

08000c6c <FLASH_WaitForLastOperation>:
 8000c6c:	b5f8      	push	{r3, r4, r5, r6, r7, lr}
 8000c6e:	0004      	movs	r4, r0
 8000c70:	f7ff feb4 	bl	80009dc <HAL_GetTick>
 8000c74:	2780      	movs	r7, #128	@ 0x80
 8000c76:	0006      	movs	r6, r0
 8000c78:	027f      	lsls	r7, r7, #9
 8000c7a:	4d14      	ldr	r5, [pc, #80]	@ (8000ccc <FLASH_WaitForLastOperation+0x60>)
 8000c7c:	692b      	ldr	r3, [r5, #16]
 8000c7e:	423b      	tst	r3, r7
 8000c80:	d116      	bne.n	8000cb0 <FLASH_WaitForLastOperation+0x44>
 8000c82:	692a      	ldr	r2, [r5, #16]
 8000c84:	4b12      	ldr	r3, [pc, #72]	@ (8000cd0 <FLASH_WaitForLastOperation+0x64>)
 8000c86:	0011      	movs	r1, r2
 8000c88:	4812      	ldr	r0, [pc, #72]	@ (8000cd4 <FLASH_WaitForLastOperation+0x68>)
 8000c8a:	4019      	ands	r1, r3
 8000c8c:	6128      	str	r0, [r5, #16]
 8000c8e:	421a      	tst	r2, r3
 8000c90:	d117      	bne.n	8000cc2 <FLASH_WaitForLastOperation+0x56>
 8000c92:	2780      	movs	r7, #128	@ 0x80
 8000c94:	02ff      	lsls	r7, r7, #11
 8000c96:	692b      	ldr	r3, [r5, #16]
 8000c98:	0018      	movs	r0, r3
 8000c9a:	4038      	ands	r0, r7
 8000c9c:	423b      	tst	r3, r7
 8000c9e:	d00f      	beq.n	8000cc0 <FLASH_WaitForLastOperation+0x54>
 8000ca0:	1c63      	adds	r3, r4, #1
 8000ca2:	d0f8      	beq.n	8000c96 <FLASH_WaitForLastOperation+0x2a>
 8000ca4:	f7ff fe9a 	bl	80009dc <HAL_GetTick>
 8000ca8:	1b80      	subs	r0, r0, r6
 8000caa:	42a0      	cmp	r0, r4
 8000cac:	d3f3      	bcc.n	8000c96 <FLASH_WaitForLastOperation+0x2a>
 8000cae:	e006      	b.n	8000cbe <FLASH_WaitForLastOperation+0x52>
 8000cb0:	1c63      	adds	r3, r4, #1
 8000cb2:	d0e3      	beq.n	8000c7c <FLASH_WaitForLastOperation+0x10>
 8000cb4:	f7ff fe92 	bl	80009dc <HAL_GetTick>
 8000cb8:	1b80      	subs	r0, r0, r6
 8000cba:	42a0      	cmp	r0, r4
 8000cbc:	d3dd      	bcc.n	8000c7a <FLASH_WaitForLastOperation+0xe>
 8000cbe:	2003      	movs	r0, #3
 8000cc0:	bdf8      	pop	{r3, r4, r5, r6, r7, pc}
 8000cc2:	4b05      	ldr	r3, [pc, #20]	@ (8000cd8 <FLASH_WaitForLastOperation+0x6c>)
 8000cc4:	2001      	movs	r0, #1
 8000cc6:	6059      	str	r1, [r3, #4]
 8000cc8:	e7fa      	b.n	8000cc0 <FLASH_WaitForLastOperation+0x54>
 8000cca:	46c0      	nop			@ (mov r8, r8)
 8000ccc:	40022000 	.word	0x40022000
 8000cd0:	000083fa 	.word	0x000083fa
 8000cd4:	000083fb 	.word	0x000083fb
 8000cd8:	200008a0 	.word	0x200008a0

08000cdc <HAL_FLASH_Program>:
 8000cdc:	b5f7      	push	{r0, r1, r2, r4, r5, r6, r7, lr}
 8000cde:	4e17      	ldr	r6, [pc, #92]	@ (8000d3c <HAL_FLASH_Program+0x60>)
 8000ce0:	9301      	str	r3, [sp, #4]
 8000ce2:	7833      	ldrb	r3, [r6, #0]
 8000ce4:	0004      	movs	r4, r0
 8000ce6:	000d      	movs	r5, r1
 8000ce8:	2002      	movs	r0, #2
 8000cea:	9200      	str	r2, [sp, #0]
 8000cec:	2b01      	cmp	r3, #1
 8000cee:	d01e      	beq.n	8000d2e <HAL_FLASH_Program+0x52>
 8000cf0:	2301      	movs	r3, #1
 8000cf2:	20fa      	movs	r0, #250	@ 0xfa
 8000cf4:	7033      	strb	r3, [r6, #0]
 8000cf6:	2300      	movs	r3, #0
 8000cf8:	0080      	lsls	r0, r0, #2
 8000cfa:	6073      	str	r3, [r6, #4]
 8000cfc:	f7ff ffb6 	bl	8000c6c <FLASH_WaitForLastOperation>
 8000d00:	2800      	cmp	r0, #0
 8000d02:	d112      	bne.n	8000d2a <HAL_FLASH_Program+0x4e>
 8000d04:	4f0e      	ldr	r7, [pc, #56]	@ (8000d40 <HAL_FLASH_Program+0x64>)
 8000d06:	2c01      	cmp	r4, #1
 8000d08:	d112      	bne.n	8000d30 <HAL_FLASH_Program+0x54>
 8000d0a:	697b      	ldr	r3, [r7, #20]
 8000d0c:	4323      	orrs	r3, r4
 8000d0e:	617b      	str	r3, [r7, #20]
 8000d10:	9b00      	ldr	r3, [sp, #0]
 8000d12:	602b      	str	r3, [r5, #0]
 8000d14:	f3bf 8f6f 	isb	sy
 8000d18:	9b01      	ldr	r3, [sp, #4]
 8000d1a:	606b      	str	r3, [r5, #4]
 8000d1c:	20fa      	movs	r0, #250	@ 0xfa
 8000d1e:	0080      	lsls	r0, r0, #2
 8000d20:	f7ff ffa4 	bl	8000c6c <FLASH_WaitForLastOperation>
 8000d24:	697b      	ldr	r3, [r7, #20]
 8000d26:	43a3      	bics	r3, r4
 8000d28:	617b      	str	r3, [r7, #20]
 8000d2a:	2300      	movs	r3, #0
 8000d2c:	7033      	strb	r3, [r6, #0]
 8000d2e:	bdfe      	pop	{r1, r2, r3, r4, r5, r6, r7, pc}
 8000d30:	0028      	movs	r0, r5
 8000d32:	9900      	ldr	r1, [sp, #0]
 8000d34:	f000 fa60 	bl	80011f8 <__FLASH_Program_Fast_veneer>
 8000d38:	e7f0      	b.n	8000d1c <HAL_FLASH_Program+0x40>
 8000d3a:	46c0      	nop			@ (mov r8, r8)
 8000d3c:	200008a0 	.word	0x200008a0
 8000d40:	40022000 	.word	0x40022000

08000d44 <HAL_FLASH_Lock>:
 8000d44:	20fa      	movs	r0, #250	@ 0xfa
 8000d46:	b510      	push	{r4, lr}
 8000d48:	0080      	lsls	r0, r0, #2
 8000d4a:	f7ff ff8f 	bl	8000c6c <FLASH_WaitForLastOperation>
 8000d4e:	2280      	movs	r2, #128	@ 0x80
 8000d50:	4b04      	ldr	r3, [pc, #16]	@ (8000d64 <HAL_FLASH_Lock+0x20>)
 8000d52:	0612      	lsls	r2, r2, #24
 8000d54:	6959      	ldr	r1, [r3, #20]
 8000d56:	430a      	orrs	r2, r1
 8000d58:	615a      	str	r2, [r3, #20]
 8000d5a:	6958      	ldr	r0, [r3, #20]
 8000d5c:	43c0      	mvns	r0, r0
 8000d5e:	0fc0      	lsrs	r0, r0, #31
 8000d60:	bd10      	pop	{r4, pc}
 8000d62:	46c0      	nop			@ (mov r8, r8)
 8000d64:	40022000 	.word	0x40022000

08000d68 <FLASH_PageErase>:
 8000d68:	4a04      	ldr	r2, [pc, #16]	@ (8000d7c <FLASH_PageErase+0x14>)
 8000d6a:	4805      	ldr	r0, [pc, #20]	@ (8000d80 <FLASH_PageErase+0x18>)
 8000d6c:	6953      	ldr	r3, [r2, #20]
 8000d6e:	00c9      	lsls	r1, r1, #3
 8000d70:	4003      	ands	r3, r0
 8000d72:	4319      	orrs	r1, r3
 8000d74:	4b03      	ldr	r3, [pc, #12]	@ (8000d84 <FLASH_PageErase+0x1c>)
 8000d76:	430b      	orrs	r3, r1
 8000d78:	6153      	str	r3, [r2, #20]
 8000d7a:	4770      	bx	lr
 8000d7c:	40022000 	.word	0x40022000
 8000d80:	ffffe007 	.word	0xffffe007
 8000d84:	00010002 	.word	0x00010002

08000d88 <HAL_FLASHEx_Erase>:
 8000d88:	b5f7      	push	{r0, r1, r2, r4, r5, r6, r7, lr}
 8000d8a:	4f21      	ldr	r7, [pc, #132]	@ (8000e10 <HAL_FLASHEx_Erase+0x88>)
 8000d8c:	0005      	movs	r5, r0
 8000d8e:	783b      	ldrb	r3, [r7, #0]
 8000d90:	2402      	movs	r4, #2
 8000d92:	9101      	str	r1, [sp, #4]
 8000d94:	2b01      	cmp	r3, #1
 8000d96:	d01a      	beq.n	8000dce <HAL_FLASHEx_Erase+0x46>
 8000d98:	2301      	movs	r3, #1
 8000d9a:	20fa      	movs	r0, #250	@ 0xfa
 8000d9c:	703b      	strb	r3, [r7, #0]
 8000d9e:	2300      	movs	r3, #0
 8000da0:	0080      	lsls	r0, r0, #2
 8000da2:	607b      	str	r3, [r7, #4]
 8000da4:	f7ff ff62 	bl	8000c6c <FLASH_WaitForLastOperation>
 8000da8:	1e04      	subs	r4, r0, #0
 8000daa:	d10e      	bne.n	8000dca <HAL_FLASHEx_Erase+0x42>
 8000dac:	2304      	movs	r3, #4
 8000dae:	606b      	str	r3, [r5, #4]
 8000db0:	682b      	ldr	r3, [r5, #0]
 8000db2:	2b04      	cmp	r3, #4
 8000db4:	d10d      	bne.n	8000dd2 <HAL_FLASHEx_Erase+0x4a>
 8000db6:	20fa      	movs	r0, #250	@ 0xfa
 8000db8:	4a16      	ldr	r2, [pc, #88]	@ (8000e14 <HAL_FLASHEx_Erase+0x8c>)
 8000dba:	4b17      	ldr	r3, [pc, #92]	@ (8000e18 <HAL_FLASHEx_Erase+0x90>)
 8000dbc:	6951      	ldr	r1, [r2, #20]
 8000dbe:	0080      	lsls	r0, r0, #2
 8000dc0:	430b      	orrs	r3, r1
 8000dc2:	6153      	str	r3, [r2, #20]
 8000dc4:	f7ff ff52 	bl	8000c6c <FLASH_WaitForLastOperation>
 8000dc8:	0004      	movs	r4, r0
 8000dca:	2300      	movs	r3, #0
 8000dcc:	703b      	strb	r3, [r7, #0]
 8000dce:	0020      	movs	r0, r4
 8000dd0:	bdfe      	pop	{r1, r2, r3, r4, r5, r6, r7, pc}
 8000dd2:	2301      	movs	r3, #1
 8000dd4:	9a01      	ldr	r2, [sp, #4]
 8000dd6:	425b      	negs	r3, r3
 8000dd8:	6013      	str	r3, [r2, #0]
 8000dda:	68ae      	ldr	r6, [r5, #8]
 8000ddc:	68ab      	ldr	r3, [r5, #8]
 8000dde:	68ea      	ldr	r2, [r5, #12]
 8000de0:	189b      	adds	r3, r3, r2
 8000de2:	42b3      	cmp	r3, r6
 8000de4:	d90c      	bls.n	8000e00 <HAL_FLASHEx_Erase+0x78>
 8000de6:	6868      	ldr	r0, [r5, #4]
 8000de8:	0031      	movs	r1, r6
 8000dea:	f7ff ffbd 	bl	8000d68 <FLASH_PageErase>
 8000dee:	20fa      	movs	r0, #250	@ 0xfa
 8000df0:	0080      	lsls	r0, r0, #2
 8000df2:	f7ff ff3b 	bl	8000c6c <FLASH_WaitForLastOperation>
 8000df6:	2800      	cmp	r0, #0
 8000df8:	d008      	beq.n	8000e0c <HAL_FLASHEx_Erase+0x84>
 8000dfa:	0004      	movs	r4, r0
 8000dfc:	9b01      	ldr	r3, [sp, #4]
 8000dfe:	601e      	str	r6, [r3, #0]
 8000e00:	2102      	movs	r1, #2
 8000e02:	4a04      	ldr	r2, [pc, #16]	@ (8000e14 <HAL_FLASHEx_Erase+0x8c>)
 8000e04:	6953      	ldr	r3, [r2, #20]
 8000e06:	438b      	bics	r3, r1
 8000e08:	6153      	str	r3, [r2, #20]
 8000e0a:	e7de      	b.n	8000dca <HAL_FLASHEx_Erase+0x42>
 8000e0c:	3601      	adds	r6, #1
 8000e0e:	e7e5      	b.n	8000ddc <HAL_FLASHEx_Erase+0x54>
 8000e10:	200008a0 	.word	0x200008a0
 8000e14:	40022000 	.word	0x40022000
 8000e18:	00010004 	.word	0x00010004

08000e1c <HAL_GPIO_Init>:
 8000e1c:	2300      	movs	r3, #0
 8000e1e:	b5f0      	push	{r4, r5, r6, r7, lr}
 8000e20:	b085      	sub	sp, #20
 8000e22:	680a      	ldr	r2, [r1, #0]
 8000e24:	0014      	movs	r4, r2
 8000e26:	40dc      	lsrs	r4, r3
 8000e28:	d101      	bne.n	8000e2e <HAL_GPIO_Init+0x12>
 8000e2a:	b005      	add	sp, #20
 8000e2c:	bdf0      	pop	{r4, r5, r6, r7, pc}
 8000e2e:	2501      	movs	r5, #1
 8000e30:	0014      	movs	r4, r2
 8000e32:	409d      	lsls	r5, r3
 8000e34:	402c      	ands	r4, r5
 8000e36:	9400      	str	r4, [sp, #0]
 8000e38:	422a      	tst	r2, r5
 8000e3a:	d100      	bne.n	8000e3e <HAL_GPIO_Init+0x22>
 8000e3c:	e091      	b.n	8000f62 <HAL_GPIO_Init+0x146>
 8000e3e:	684a      	ldr	r2, [r1, #4]
 8000e40:	005f      	lsls	r7, r3, #1
 8000e42:	4694      	mov	ip, r2
 8000e44:	2203      	movs	r2, #3
 8000e46:	4664      	mov	r4, ip
 8000e48:	4022      	ands	r2, r4
 8000e4a:	2403      	movs	r4, #3
 8000e4c:	40bc      	lsls	r4, r7
 8000e4e:	43e4      	mvns	r4, r4
 8000e50:	9401      	str	r4, [sp, #4]
 8000e52:	1e54      	subs	r4, r2, #1
 8000e54:	2c01      	cmp	r4, #1
 8000e56:	d82e      	bhi.n	8000eb6 <HAL_GPIO_Init+0x9a>
 8000e58:	6886      	ldr	r6, [r0, #8]
 8000e5a:	9c01      	ldr	r4, [sp, #4]
 8000e5c:	4026      	ands	r6, r4
 8000e5e:	68cc      	ldr	r4, [r1, #12]
 8000e60:	40bc      	lsls	r4, r7
 8000e62:	4334      	orrs	r4, r6
 8000e64:	6084      	str	r4, [r0, #8]
 8000e66:	6844      	ldr	r4, [r0, #4]
 8000e68:	2601      	movs	r6, #1
 8000e6a:	43ac      	bics	r4, r5
 8000e6c:	0025      	movs	r5, r4
 8000e6e:	4664      	mov	r4, ip
 8000e70:	0924      	lsrs	r4, r4, #4
 8000e72:	4034      	ands	r4, r6
 8000e74:	409c      	lsls	r4, r3
 8000e76:	432c      	orrs	r4, r5
 8000e78:	6044      	str	r4, [r0, #4]
 8000e7a:	68c5      	ldr	r5, [r0, #12]
 8000e7c:	9c01      	ldr	r4, [sp, #4]
 8000e7e:	4025      	ands	r5, r4
 8000e80:	688c      	ldr	r4, [r1, #8]
 8000e82:	40bc      	lsls	r4, r7
 8000e84:	432c      	orrs	r4, r5
 8000e86:	60c4      	str	r4, [r0, #12]
 8000e88:	2a02      	cmp	r2, #2
 8000e8a:	d116      	bne.n	8000eba <HAL_GPIO_Init+0x9e>
 8000e8c:	2507      	movs	r5, #7
 8000e8e:	260f      	movs	r6, #15
 8000e90:	401d      	ands	r5, r3
 8000e92:	00ad      	lsls	r5, r5, #2
 8000e94:	40ae      	lsls	r6, r5
 8000e96:	08dc      	lsrs	r4, r3, #3
 8000e98:	00a4      	lsls	r4, r4, #2
 8000e9a:	1904      	adds	r4, r0, r4
 8000e9c:	9402      	str	r4, [sp, #8]
 8000e9e:	6a24      	ldr	r4, [r4, #32]
 8000ea0:	9603      	str	r6, [sp, #12]
 8000ea2:	0026      	movs	r6, r4
 8000ea4:	9c03      	ldr	r4, [sp, #12]
 8000ea6:	43a6      	bics	r6, r4
 8000ea8:	0034      	movs	r4, r6
 8000eaa:	690e      	ldr	r6, [r1, #16]
 8000eac:	40ae      	lsls	r6, r5
 8000eae:	4326      	orrs	r6, r4
 8000eb0:	9c02      	ldr	r4, [sp, #8]
 8000eb2:	6226      	str	r6, [r4, #32]
 8000eb4:	e001      	b.n	8000eba <HAL_GPIO_Init+0x9e>
 8000eb6:	2a03      	cmp	r2, #3
 8000eb8:	d1df      	bne.n	8000e7a <HAL_GPIO_Init+0x5e>
 8000eba:	40ba      	lsls	r2, r7
 8000ebc:	6804      	ldr	r4, [r0, #0]
 8000ebe:	9d01      	ldr	r5, [sp, #4]
 8000ec0:	4025      	ands	r5, r4
 8000ec2:	432a      	orrs	r2, r5
 8000ec4:	24c0      	movs	r4, #192	@ 0xc0
 8000ec6:	6002      	str	r2, [r0, #0]
 8000ec8:	4662      	mov	r2, ip
 8000eca:	02a4      	lsls	r4, r4, #10
 8000ecc:	4222      	tst	r2, r4
 8000ece:	d048      	beq.n	8000f62 <HAL_GPIO_Init+0x146>
 8000ed0:	4a25      	ldr	r2, [pc, #148]	@ (8000f68 <HAL_GPIO_Init+0x14c>)
 8000ed2:	2503      	movs	r5, #3
 8000ed4:	089c      	lsrs	r4, r3, #2
 8000ed6:	00a4      	lsls	r4, r4, #2
 8000ed8:	18a4      	adds	r4, r4, r2
 8000eda:	220f      	movs	r2, #15
 8000edc:	401d      	ands	r5, r3
 8000ede:	00ed      	lsls	r5, r5, #3
 8000ee0:	40aa      	lsls	r2, r5
 8000ee2:	27a0      	movs	r7, #160	@ 0xa0
 8000ee4:	6e26      	ldr	r6, [r4, #96]	@ 0x60
 8000ee6:	05ff      	lsls	r7, r7, #23
 8000ee8:	4396      	bics	r6, r2
 8000eea:	2200      	movs	r2, #0
 8000eec:	42b8      	cmp	r0, r7
 8000eee:	d00c      	beq.n	8000f0a <HAL_GPIO_Init+0xee>
 8000ef0:	4f1e      	ldr	r7, [pc, #120]	@ (8000f6c <HAL_GPIO_Init+0x150>)
 8000ef2:	3201      	adds	r2, #1
 8000ef4:	42b8      	cmp	r0, r7
 8000ef6:	d008      	beq.n	8000f0a <HAL_GPIO_Init+0xee>
 8000ef8:	4f1d      	ldr	r7, [pc, #116]	@ (8000f70 <HAL_GPIO_Init+0x154>)
 8000efa:	3201      	adds	r2, #1
 8000efc:	42b8      	cmp	r0, r7
 8000efe:	d004      	beq.n	8000f0a <HAL_GPIO_Init+0xee>
 8000f00:	4f1c      	ldr	r7, [pc, #112]	@ (8000f74 <HAL_GPIO_Init+0x158>)
 8000f02:	3203      	adds	r2, #3
 8000f04:	42b8      	cmp	r0, r7
 8000f06:	d100      	bne.n	8000f0a <HAL_GPIO_Init+0xee>
 8000f08:	3a02      	subs	r2, #2
 8000f0a:	40aa      	lsls	r2, r5
 8000f0c:	4667      	mov	r7, ip
 8000f0e:	4332      	orrs	r2, r6
 8000f10:	6622      	str	r2, [r4, #96]	@ 0x60
 8000f12:	4c15      	ldr	r4, [pc, #84]	@ (8000f68 <HAL_GPIO_Init+0x14c>)
 8000f14:	9a00      	ldr	r2, [sp, #0]
 8000f16:	6826      	ldr	r6, [r4, #0]
 8000f18:	9d00      	ldr	r5, [sp, #0]
 8000f1a:	43d2      	mvns	r2, r2
 8000f1c:	4335      	orrs	r5, r6
 8000f1e:	02ff      	lsls	r7, r7, #11
 8000f20:	d401      	bmi.n	8000f26 <HAL_GPIO_Init+0x10a>
 8000f22:	0035      	movs	r5, r6
 8000f24:	4015      	ands	r5, r2
 8000f26:	4667      	mov	r7, ip
 8000f28:	6025      	str	r5, [r4, #0]
 8000f2a:	6866      	ldr	r6, [r4, #4]
 8000f2c:	9d00      	ldr	r5, [sp, #0]
 8000f2e:	4335      	orrs	r5, r6
 8000f30:	02bf      	lsls	r7, r7, #10
 8000f32:	d401      	bmi.n	8000f38 <HAL_GPIO_Init+0x11c>
 8000f34:	0035      	movs	r5, r6
 8000f36:	4015      	ands	r5, r2
 8000f38:	4667      	mov	r7, ip
 8000f3a:	6065      	str	r5, [r4, #4]
 8000f3c:	4c0e      	ldr	r4, [pc, #56]	@ (8000f78 <HAL_GPIO_Init+0x15c>)
 8000f3e:	9d00      	ldr	r5, [sp, #0]
 8000f40:	6fe6      	ldr	r6, [r4, #124]	@ 0x7c
 8000f42:	4335      	orrs	r5, r6
 8000f44:	03bf      	lsls	r7, r7, #14
 8000f46:	d401      	bmi.n	8000f4c <HAL_GPIO_Init+0x130>
 8000f48:	0035      	movs	r5, r6
 8000f4a:	4015      	ands	r5, r2
 8000f4c:	4667      	mov	r7, ip
 8000f4e:	67e5      	str	r5, [r4, #124]	@ 0x7c
 8000f50:	4c0a      	ldr	r4, [pc, #40]	@ (8000f7c <HAL_GPIO_Init+0x160>)
 8000f52:	9e00      	ldr	r6, [sp, #0]
 8000f54:	6fe5      	ldr	r5, [r4, #124]	@ 0x7c
 8000f56:	432e      	orrs	r6, r5
 8000f58:	03ff      	lsls	r7, r7, #15
 8000f5a:	d401      	bmi.n	8000f60 <HAL_GPIO_Init+0x144>
 8000f5c:	4015      	ands	r5, r2
 8000f5e:	002e      	movs	r6, r5
 8000f60:	67e6      	str	r6, [r4, #124]	@ 0x7c
 8000f62:	3301      	adds	r3, #1
 8000f64:	e75d      	b.n	8000e22 <HAL_GPIO_Init+0x6>
 8000f66:	46c0      	nop			@ (mov r8, r8)
 8000f68:	40021800 	.word	0x40021800
 8000f6c:	50000400 	.word	0x50000400
 8000f70:	50000800 	.word	0x50000800
 8000f74:	50000c00 	.word	0x50000c00
 8000f78:	40021808 	.word	0x40021808
 8000f7c:	40021804 	.word	0x40021804

08000f80 <HAL_GPIO_WritePin>:
 8000f80:	2a00      	cmp	r2, #0
 8000f82:	d001      	beq.n	8000f88 <HAL_GPIO_WritePin+0x8>
 8000f84:	6181      	str	r1, [r0, #24]
 8000f86:	4770      	bx	lr
 8000f88:	6281      	str	r1, [r0, #40]	@ 0x28
 8000f8a:	e7fc      	b.n	8000f86 <HAL_GPIO_WritePin+0x6>

08000f8c <LL_GPIO_Init>:
 8000f8c:	b5f7      	push	{r0, r1, r2, r4, r5, r6, r7, lr}
 8000f8e:	0002      	movs	r2, r0
 8000f90:	2600      	movs	r6, #0
 8000f92:	680c      	ldr	r4, [r1, #0]
 8000f94:	0020      	movs	r0, r4
 8000f96:	40f0      	lsrs	r0, r6
 8000f98:	d100      	bne.n	8000f9c <LL_GPIO_Init+0x10>
 8000f9a:	bdfe      	pop	{r1, r2, r3, r4, r5, r6, r7, pc}
 8000f9c:	2001      	movs	r0, #1
 8000f9e:	0023      	movs	r3, r4
 8000fa0:	40b0      	lsls	r0, r6
 8000fa2:	4003      	ands	r3, r0
 8000fa4:	4204      	tst	r4, r0
 8000fa6:	d033      	beq.n	8001010 <LL_GPIO_Init+0x84>
 8000fa8:	6848      	ldr	r0, [r1, #4]
 8000faa:	2403      	movs	r4, #3
 8000fac:	9000      	str	r0, [sp, #0]
 8000fae:	0018      	movs	r0, r3
 8000fb0:	4358      	muls	r0, r3
 8000fb2:	4344      	muls	r4, r0
 8000fb4:	9d00      	ldr	r5, [sp, #0]
 8000fb6:	43e4      	mvns	r4, r4
 8000fb8:	3d01      	subs	r5, #1
 8000fba:	2d01      	cmp	r5, #1
 8000fbc:	d80b      	bhi.n	8000fd6 <LL_GPIO_Init+0x4a>
 8000fbe:	688d      	ldr	r5, [r1, #8]
 8000fc0:	6897      	ldr	r7, [r2, #8]
 8000fc2:	4345      	muls	r5, r0
 8000fc4:	4027      	ands	r7, r4
 8000fc6:	433d      	orrs	r5, r7
 8000fc8:	68cf      	ldr	r7, [r1, #12]
 8000fca:	6095      	str	r5, [r2, #8]
 8000fcc:	435f      	muls	r7, r3
 8000fce:	6855      	ldr	r5, [r2, #4]
 8000fd0:	439d      	bics	r5, r3
 8000fd2:	433d      	orrs	r5, r7
 8000fd4:	6055      	str	r5, [r2, #4]
 8000fd6:	690d      	ldr	r5, [r1, #16]
 8000fd8:	68d7      	ldr	r7, [r2, #12]
 8000fda:	4345      	muls	r5, r0
 8000fdc:	4027      	ands	r7, r4
 8000fde:	433d      	orrs	r5, r7
 8000fe0:	60d5      	str	r5, [r2, #12]
 8000fe2:	9d00      	ldr	r5, [sp, #0]
 8000fe4:	2d02      	cmp	r5, #2
 8000fe6:	d10d      	bne.n	8001004 <LL_GPIO_Init+0x78>
 8000fe8:	694d      	ldr	r5, [r1, #20]
 8000fea:	9501      	str	r5, [sp, #4]
 8000fec:	2bff      	cmp	r3, #255	@ 0xff
 8000fee:	d811      	bhi.n	8001014 <LL_GPIO_Init+0x88>
 8000ff0:	0005      	movs	r5, r0
 8000ff2:	270f      	movs	r7, #15
 8000ff4:	4345      	muls	r5, r0
 8000ff6:	436f      	muls	r7, r5
 8000ff8:	6a13      	ldr	r3, [r2, #32]
 8000ffa:	43bb      	bics	r3, r7
 8000ffc:	9f01      	ldr	r7, [sp, #4]
 8000ffe:	436f      	muls	r7, r5
 8001000:	433b      	orrs	r3, r7
 8001002:	6213      	str	r3, [r2, #32]
 8001004:	6813      	ldr	r3, [r2, #0]
 8001006:	4023      	ands	r3, r4
 8001008:	9c00      	ldr	r4, [sp, #0]
 800100a:	4360      	muls	r0, r4
 800100c:	4303      	orrs	r3, r0
 800100e:	6013      	str	r3, [r2, #0]
 8001010:	3601      	adds	r6, #1
 8001012:	e7be      	b.n	8000f92 <LL_GPIO_Init+0x6>
 8001014:	270f      	movs	r7, #15
 8001016:	0a1b      	lsrs	r3, r3, #8
 8001018:	435b      	muls	r3, r3
 800101a:	435b      	muls	r3, r3
 800101c:	435f      	muls	r7, r3
 800101e:	6a55      	ldr	r5, [r2, #36]	@ 0x24
 8001020:	43bd      	bics	r5, r7
 8001022:	9f01      	ldr	r7, [sp, #4]
 8001024:	435f      	muls	r7, r3
 8001026:	433d      	orrs	r5, r7
 8001028:	6255      	str	r5, [r2, #36]	@ 0x24
 800102a:	e7eb      	b.n	8001004 <LL_GPIO_Init+0x78>

0800102c <LL_I2C_DeInit>:
 800102c:	4a0e      	ldr	r2, [pc, #56]	@ (8001068 <LL_I2C_DeInit+0x3c>)
 800102e:	0003      	movs	r3, r0
 8001030:	4290      	cmp	r0, r2
 8001032:	d10b      	bne.n	800104c <LL_I2C_DeInit+0x20>
 8001034:	2280      	movs	r2, #128	@ 0x80
 8001036:	4b0d      	ldr	r3, [pc, #52]	@ (800106c <LL_I2C_DeInit+0x40>)
 8001038:	0392      	lsls	r2, r2, #14
 800103a:	6ad9      	ldr	r1, [r3, #44]	@ 0x2c
 800103c:	430a      	orrs	r2, r1
 800103e:	62da      	str	r2, [r3, #44]	@ 0x2c
 8001040:	6ada      	ldr	r2, [r3, #44]	@ 0x2c
 8001042:	490b      	ldr	r1, [pc, #44]	@ (8001070 <LL_I2C_DeInit+0x44>)
 8001044:	2000      	movs	r0, #0
 8001046:	400a      	ands	r2, r1
 8001048:	62da      	str	r2, [r3, #44]	@ 0x2c
 800104a:	4770      	bx	lr
 800104c:	4a09      	ldr	r2, [pc, #36]	@ (8001074 <LL_I2C_DeInit+0x48>)
 800104e:	2001      	movs	r0, #1
 8001050:	4293      	cmp	r3, r2
 8001052:	d1fa      	bne.n	800104a <LL_I2C_DeInit+0x1e>
 8001054:	2280      	movs	r2, #128	@ 0x80
 8001056:	4b05      	ldr	r3, [pc, #20]	@ (800106c <LL_I2C_DeInit+0x40>)
 8001058:	03d2      	lsls	r2, r2, #15
 800105a:	6ad9      	ldr	r1, [r3, #44]	@ 0x2c
 800105c:	430a      	orrs	r2, r1
 800105e:	62da      	str	r2, [r3, #44]	@ 0x2c
 8001060:	6ada      	ldr	r2, [r3, #44]	@ 0x2c
 8001062:	4905      	ldr	r1, [pc, #20]	@ (8001078 <LL_I2C_DeInit+0x4c>)
 8001064:	e7ee      	b.n	8001044 <LL_I2C_DeInit+0x18>
 8001066:	46c0      	nop			@ (mov r8, r8)
 8001068:	40005400 	.word	0x40005400
 800106c:	40021000 	.word	0x40021000
 8001070:	ffdfffff 	.word	0xffdfffff
 8001074:	40005800 	.word	0x40005800
 8001078:	ffbfffff 	.word	0xffbfffff

0800107c <LL_I2C_Init>:
 800107c:	2201      	movs	r2, #1
 800107e:	6803      	ldr	r3, [r0, #0]
 8001080:	b530      	push	{r4, r5, lr}
 8001082:	4393      	bics	r3, r2
 8001084:	6003      	str	r3, [r0, #0]
 8001086:	68cb      	ldr	r3, [r1, #12]
 8001088:	688d      	ldr	r5, [r1, #8]
 800108a:	021b      	lsls	r3, r3, #8
 800108c:	6804      	ldr	r4, [r0, #0]
 800108e:	432b      	orrs	r3, r5
 8001090:	4d14      	ldr	r5, [pc, #80]	@ (80010e4 <LL_I2C_Init+0x68>)
 8001092:	402c      	ands	r4, r5
 8001094:	4323      	orrs	r3, r4
 8001096:	6003      	str	r3, [r0, #0]
 8001098:	684b      	ldr	r3, [r1, #4]
 800109a:	690d      	ldr	r5, [r1, #16]
 800109c:	6103      	str	r3, [r0, #16]
 800109e:	6803      	ldr	r3, [r0, #0]
 80010a0:	431a      	orrs	r2, r3
 80010a2:	6002      	str	r2, [r0, #0]
 80010a4:	6883      	ldr	r3, [r0, #8]
 80010a6:	4a10      	ldr	r2, [pc, #64]	@ (80010e8 <LL_I2C_Init+0x6c>)
 80010a8:	4013      	ands	r3, r2
 80010aa:	6083      	str	r3, [r0, #8]
 80010ac:	6884      	ldr	r4, [r0, #8]
 80010ae:	698b      	ldr	r3, [r1, #24]
 80010b0:	0ae4      	lsrs	r4, r4, #11
 80010b2:	432b      	orrs	r3, r5
 80010b4:	02e4      	lsls	r4, r4, #11
 80010b6:	4323      	orrs	r3, r4
 80010b8:	6083      	str	r3, [r0, #8]
 80010ba:	2d00      	cmp	r5, #0
 80010bc:	d004      	beq.n	80010c8 <LL_I2C_Init+0x4c>
 80010be:	2380      	movs	r3, #128	@ 0x80
 80010c0:	6884      	ldr	r4, [r0, #8]
 80010c2:	021b      	lsls	r3, r3, #8
 80010c4:	4323      	orrs	r3, r4
 80010c6:	6083      	str	r3, [r0, #8]
 80010c8:	6803      	ldr	r3, [r0, #0]
 80010ca:	4c08      	ldr	r4, [pc, #32]	@ (80010ec <LL_I2C_Init+0x70>)
 80010cc:	4023      	ands	r3, r4
 80010ce:	680c      	ldr	r4, [r1, #0]
 80010d0:	4323      	orrs	r3, r4
 80010d2:	6003      	str	r3, [r0, #0]
 80010d4:	6843      	ldr	r3, [r0, #4]
 80010d6:	4013      	ands	r3, r2
 80010d8:	694a      	ldr	r2, [r1, #20]
 80010da:	4313      	orrs	r3, r2
 80010dc:	6043      	str	r3, [r0, #4]
 80010de:	2000      	movs	r0, #0
 80010e0:	bd30      	pop	{r4, r5, pc}
 80010e2:	46c0      	nop			@ (mov r8, r8)
 80010e4:	ffffe0ff 	.word	0xffffe0ff
 80010e8:	ffff7fff 	.word	0xffff7fff
 80010ec:	ffcfffff 	.word	0xffcfffff

080010f0 <LL_RCC_DeInit>:
 80010f0:	2280      	movs	r2, #128	@ 0x80
 80010f2:	4b15      	ldr	r3, [pc, #84]	@ (8001148 <LL_RCC_DeInit+0x58>)
 80010f4:	0052      	lsls	r2, r2, #1
 80010f6:	6819      	ldr	r1, [r3, #0]
 80010f8:	430a      	orrs	r2, r1
 80010fa:	601a      	str	r2, [r3, #0]
 80010fc:	2280      	movs	r2, #128	@ 0x80
 80010fe:	00d2      	lsls	r2, r2, #3
 8001100:	6819      	ldr	r1, [r3, #0]
 8001102:	4211      	tst	r1, r2
 8001104:	d0fc      	beq.n	8001100 <LL_RCC_DeInit+0x10>
 8001106:	6859      	ldr	r1, [r3, #4]
 8001108:	4a10      	ldr	r2, [pc, #64]	@ (800114c <LL_RCC_DeInit+0x5c>)
 800110a:	4011      	ands	r1, r2
 800110c:	2280      	movs	r2, #128	@ 0x80
 800110e:	01d2      	lsls	r2, r2, #7
 8001110:	430a      	orrs	r2, r1
 8001112:	605a      	str	r2, [r3, #4]
 8001114:	2200      	movs	r2, #0
 8001116:	2180      	movs	r1, #128	@ 0x80
 8001118:	609a      	str	r2, [r3, #8]
 800111a:	3201      	adds	r2, #1
 800111c:	32ff      	adds	r2, #255	@ 0xff
 800111e:	601a      	str	r2, [r3, #0]
 8001120:	0289      	lsls	r1, r1, #10
 8001122:	6818      	ldr	r0, [r3, #0]
 8001124:	4208      	tst	r0, r1
 8001126:	d1fc      	bne.n	8001122 <LL_RCC_DeInit+0x32>
 8001128:	601a      	str	r2, [r3, #0]
 800112a:	2280      	movs	r2, #128	@ 0x80
 800112c:	0492      	lsls	r2, r2, #18
 800112e:	6819      	ldr	r1, [r3, #0]
 8001130:	0008      	movs	r0, r1
 8001132:	4010      	ands	r0, r2
 8001134:	4211      	tst	r1, r2
 8001136:	d1fa      	bne.n	800112e <LL_RCC_DeInit+0x3e>
 8001138:	2280      	movs	r2, #128	@ 0x80
 800113a:	0152      	lsls	r2, r2, #5
 800113c:	60da      	str	r2, [r3, #12]
 800113e:	2201      	movs	r2, #1
 8001140:	4252      	negs	r2, r2
 8001142:	6198      	str	r0, [r3, #24]
 8001144:	621a      	str	r2, [r3, #32]
 8001146:	4770      	bx	lr
 8001148:	40021000 	.word	0x40021000
 800114c:	ffff80ff 	.word	0xffff80ff

08001150 <LL_mDelay>:
 8001150:	4a09      	ldr	r2, [pc, #36]	@ (8001178 <LL_mDelay+0x28>)
 8001152:	b082      	sub	sp, #8
 8001154:	6813      	ldr	r3, [r2, #0]
 8001156:	9301      	str	r3, [sp, #4]
 8001158:	9b01      	ldr	r3, [sp, #4]
 800115a:	1c43      	adds	r3, r0, #1
 800115c:	1e59      	subs	r1, r3, #1
 800115e:	418b      	sbcs	r3, r1
 8001160:	18c0      	adds	r0, r0, r3
 8001162:	2380      	movs	r3, #128	@ 0x80
 8001164:	025b      	lsls	r3, r3, #9
 8001166:	2800      	cmp	r0, #0
 8001168:	d101      	bne.n	800116e <LL_mDelay+0x1e>
 800116a:	b002      	add	sp, #8
 800116c:	4770      	bx	lr
 800116e:	6811      	ldr	r1, [r2, #0]
 8001170:	4219      	tst	r1, r3
 8001172:	d0fc      	beq.n	800116e <LL_mDelay+0x1e>
 8001174:	3801      	subs	r0, #1
 8001176:	e7f6      	b.n	8001166 <LL_mDelay+0x16>
 8001178:	e000e010 	.word	0xe000e010

0800117c <LL_SetSystemCoreClock>:
 800117c:	4b01      	ldr	r3, [pc, #4]	@ (8001184 <LL_SetSystemCoreClock+0x8>)
 800117e:	6018      	str	r0, [r3, #0]
 8001180:	4770      	bx	lr
 8001182:	46c0      	nop			@ (mov r8, r8)
 8001184:	20000000 	.word	0x20000000

08001188 <memset>:
 8001188:	0003      	movs	r3, r0
 800118a:	1882      	adds	r2, r0, r2
 800118c:	4293      	cmp	r3, r2
 800118e:	d100      	bne.n	8001192 <memset+0xa>
 8001190:	4770      	bx	lr
 8001192:	7019      	strb	r1, [r3, #0]
 8001194:	3301      	adds	r3, #1
 8001196:	e7f9      	b.n	800118c <memset+0x4>

08001198 <__libc_init_array>:
 8001198:	b570      	push	{r4, r5, r6, lr}
 800119a:	2600      	movs	r6, #0
 800119c:	4c0c      	ldr	r4, [pc, #48]	@ (80011d0 <__libc_init_array+0x38>)
 800119e:	4d0d      	ldr	r5, [pc, #52]	@ (80011d4 <__libc_init_array+0x3c>)
 80011a0:	1b64      	subs	r4, r4, r5
 80011a2:	10a4      	asrs	r4, r4, #2
 80011a4:	42a6      	cmp	r6, r4
 80011a6:	d109      	bne.n	80011bc <__libc_init_array+0x24>
 80011a8:	2600      	movs	r6, #0
 80011aa:	f000 f819 	bl	80011e0 <_init>
 80011ae:	4c0a      	ldr	r4, [pc, #40]	@ (80011d8 <__libc_init_array+0x40>)
 80011b0:	4d0a      	ldr	r5, [pc, #40]	@ (80011dc <__libc_init_array+0x44>)
 80011b2:	1b64      	subs	r4, r4, r5
 80011b4:	10a4      	asrs	r4, r4, #2
 80011b6:	42a6      	cmp	r6, r4
 80011b8:	d105      	bne.n	80011c6 <__libc_init_array+0x2e>
 80011ba:	bd70      	pop	{r4, r5, r6, pc}
 80011bc:	00b3      	lsls	r3, r6, #2
 80011be:	58eb      	ldr	r3, [r5, r3]
 80011c0:	4798      	blx	r3
 80011c2:	3601      	adds	r6, #1
 80011c4:	e7ee      	b.n	80011a4 <__libc_init_array+0xc>
 80011c6:	00b3      	lsls	r3, r6, #2
 80011c8:	58eb      	ldr	r3, [r5, r3]
 80011ca:	4798      	blx	r3
 80011cc:	3601      	adds	r6, #1
 80011ce:	e7f2      	b.n	80011b6 <__libc_init_array+0x1e>
 80011d0:	08001208 	.word	0x08001208
 80011d4:	08001208 	.word	0x08001208
 80011d8:	0800120c 	.word	0x0800120c
 80011dc:	08001208 	.word	0x08001208

080011e0 <_init>:
 80011e0:	b5f8      	push	{r3, r4, r5, r6, r7, lr}
 80011e2:	46c0      	nop			@ (mov r8, r8)
 80011e4:	bcf8      	pop	{r3, r4, r5, r6, r7}
 80011e6:	bc08      	pop	{r3}
 80011e8:	469e      	mov	lr, r3
 80011ea:	4770      	bx	lr

080011ec <_fini>:
 80011ec:	b5f8      	push	{r3, r4, r5, r6, r7, lr}
 80011ee:	46c0      	nop			@ (mov r8, r8)
 80011f0:	bcf8      	pop	{r3, r4, r5, r6, r7}
 80011f2:	bc08      	pop	{r3}
 80011f4:	469e      	mov	lr, r3
 80011f6:	4770      	bx	lr

080011f8 <__FLASH_Program_Fast_veneer>:
 80011f8:	b401      	push	{r0}
 80011fa:	4802      	ldr	r0, [pc, #8]	@ (8001204 <__FLASH_Program_Fast_veneer+0xc>)
 80011fc:	4684      	mov	ip, r0
 80011fe:	bc01      	pop	{r0}
 8001200:	4760      	bx	ip
 8001202:	bf00      	nop
 8001204:	2000000d 	.word	0x2000000d

Disassembly of section .data:

20000000 <SystemCoreClock>:
20000000:	00f42400                                .$..

20000004 <uwTickFreq>:
20000004:	00000001                                ....

20000008 <uwTickPrio>:
20000008:	00000004                                ....

2000000c <FLASH_Program_Fast>:
2000000c:	2280      	movs	r2, #128	@ 0x80
2000000e:	4b0c      	ldr	r3, [pc, #48]	@ (20000040 <FLASH_Program_Fast+0x34>)
20000010:	b530      	push	{r4, r5, lr}
20000012:	695c      	ldr	r4, [r3, #20]
20000014:	02d2      	lsls	r2, r2, #11
20000016:	4322      	orrs	r2, r4
20000018:	615a      	str	r2, [r3, #20]
2000001a:	f3ef 8210 	mrs	r2, PRIMASK
2000001e:	b672      	cpsid	i
20000020:	1c4c      	adds	r4, r1, #1
20000022:	34ff      	adds	r4, #255	@ 0xff
20000024:	1a40      	subs	r0, r0, r1
20000026:	680d      	ldr	r5, [r1, #0]
20000028:	5045      	str	r5, [r0, r1]
2000002a:	3104      	adds	r1, #4
2000002c:	428c      	cmp	r4, r1
2000002e:	d1fa      	bne.n	20000026 <FLASH_Program_Fast+0x1a>
20000030:	2180      	movs	r1, #128	@ 0x80
20000032:	0249      	lsls	r1, r1, #9
20000034:	6918      	ldr	r0, [r3, #16]
20000036:	4208      	tst	r0, r1
20000038:	d1fc      	bne.n	20000034 <FLASH_Program_Fast+0x28>
2000003a:	f382 8810 	msr	PRIMASK, r2
2000003e:	bd30      	pop	{r4, r5, pc}
20000040:	40022000 	.word	0x40022000
